; ModuleID = '/Users/richard/code/ChocolateDescent/main_d2/fvi.cpp'
source_filename = "/Users/richard/code/ChocolateDescent/main_d2/fvi.cpp"
target datalayout = "e-m:o-p270:32:32-p271:32:32-p272:64:64-i64:64-i128:128-n32:64-S128-Fn32"
target triple = "arm64-apple-macosx15.0.0"

%struct.vms_vector = type { i32, i32, i32 }
%struct.segment = type { [6 x %struct.side], [6 x i16], [8 x i16], i32 }
%struct.side = type { i8, i8, i16, i16, i16, [4 x %struct.uvl], [2 x %struct.vms_vector] }
%struct.uvl = type { i32, i32, i32 }
%struct.robot_info = type { i32, [8 x %struct.vms_vector], [8 x i8], i16, i16, i16, i16, i8, i8, i8, i8, i8, i8, i8, i8, i16, i8, i8, i32, i32, i32, i32, [5 x i32], [5 x i32], [5 x i32], [5 x i32], [5 x i32], [5 x i32], [5 x i8], [5 x i8], i8, i8, i8, i8, i8, i8, i8, i8, i8, i8, i8, i8, i8, i8, i8, [3 x i8], i8, i8, i8, i8, [9 x [5 x %struct.jointlist]], i32 }
%struct.jointlist = type { i16, i16 }
%struct.object = type { i32, i8, i8, i16, i16, i8, i8, i8, i8, i16, i16, %struct.vms_vector, %struct.vms_matrix, i32, i32, %struct.vms_vector, i8, i8, i8, i8, i32, %union.anon, %union.anon.0, %union.anon.1 }
%struct.vms_matrix = type { %struct.vms_vector, %struct.vms_vector, %struct.vms_vector }
%union.anon = type { %struct.physics_info }
%struct.physics_info = type { %struct.vms_vector, %struct.vms_vector, i32, i32, i32, %struct.vms_vector, %struct.vms_vector, i16, i16 }
%union.anon.0 = type { %struct.ai_static }
%struct.ai_static = type { i8, [11 x i8], i16, i16, i16, i8, i8, i16, i32, i32 }
%union.anon.1 = type { %struct.polyobj_info }
%struct.polyobj_info = type { i32, [10 x %struct.vms_angvec], i32, i32, i32 }
%struct.vms_angvec = type { i16, i16, i16 }
%struct.player = type { [9 x i8], [4 x i8], i16, i8, i32, i32, i32, i32, i32, i32, i8, i8, i8, i8, i16, i16, i16, [10 x i16], [10 x i16], i16, i32, i32, i32, i32, i32, i32, i16, i16, i16, i16, i16, i16, i16, i16, i16, i8, i8, i32, i8, i8 }
%struct._grs_bitmap = type { i16, i16, i16, i16, i8, i8, i16, ptr, i16, i8, i8 }
%struct.bitmap_index = type { i16 }
%struct.vms_vector_array = type { [3 x i32] }
%struct.vec2d = type { i32, i32 }
%"struct.std::__1::__less" = type { i8 }
%struct.laser_info_s = type { i16, i16, i32, i32, i16, i16, i32 }
%struct.segmasks = type { i16, i8, i8 }
%struct.fvi_query = type { ptr, ptr, i32, i32, i16, ptr, i32 }
%struct.fvi_info = type { i32, %struct.vms_vector, i32, i32, i32, i32, %struct.vms_vector, i32, [100 x i32] }

@.str = private unnamed_addr constant [8 x i8] c"k<=f1_0\00", align 1, !dbg !0
@.str.1 = private unnamed_addr constant [53 x i8] c"/Users/richard/code/ChocolateDescent/main_d2/fvi.cpp\00", align 1, !dbg !8
@ij_table = global [3 x [2 x i32]] [[2 x i32] [i32 2, i32 1], [2 x i32] [i32 0, i32 2], [2 x i32] [i32 1, i32 0]], align 4, !dbg !13
@Vertices = external global [0 x %struct.vms_vector], align 4
@Segments = external global [0 x %struct.segment], align 4
@.str.2 = private unnamed_addr constant [37 x i8] c"segnum == -1 in check_line_to_face()\00", align 1, !dbg !38
@disable_new_fvi_stuff = global i32 0, align 4, !dbg !43
@.str.3 = private unnamed_addr constant [45 x i8] c"segnum == -1 in special_check_line_to_face()\00", align 1, !dbg !45
@Robot_info = external global [0 x %struct.robot_info], align 4
@Game_mode = external global i32, align 4
@n_segs_visited = global i32 0, align 4, !dbg !50
@segs_visited = global [100 x i16] zeroinitializer, align 2, !dbg !52
@fvi_nest_count = global i32 0, align 4, !dbg !58
@fvi_hit_object = global i32 0, align 4, !dbg !60
@fvi_hit_seg = global i32 0, align 4, !dbg !62
@fvi_hit_side = global i32 0, align 4, !dbg !64
@fvi_hit_side_seg = global i32 0, align 4, !dbg !66
@wall_norm = global %struct.vms_vector zeroinitializer, align 4, !dbg !68
@fvi_hit_seg2 = global i32 0, align 4, !dbg !76
@.str.4 = private unnamed_addr constant [35 x i8] c"fq->ignore_obj_list != (int *)(-1)\00", align 1, !dbg !78
@Highest_segment_index = external global i32, align 4
@.str.5 = private unnamed_addr constant [63 x i8] c"(fq->startseg <= Highest_segment_index) && (fq->startseg >= 0)\00", align 1, !dbg !83
@.str.6 = private unnamed_addr constant [46 x i8] c"!(hit_type==HIT_OBJECT && fvi_hit_object==-1)\00", align 1, !dbg !88
@Objects = external global [0 x %struct.object], align 4
@CollisionResult = external global [16 x [16 x i8]], align 1
@.str.7 = private unnamed_addr constant [19 x i8] c"fvi_hit_object!=-1\00", align 1, !dbg !93
@Players = external global [12 x %struct.player], align 4
@Player_num = external global i32, align 4
@Physics_cheat_flag = external global i32, align 4
@.str.8 = private unnamed_addr constant [23 x i8] c"*n_segs < MAX_FVI_SEGS\00", align 1, !dbg !98
@.str.9 = private unnamed_addr constant [39 x i8] c"Bad segnum (%d) in find_hitpoint_uv()\0A\00", align 1, !dbg !103
@.str.10 = private unnamed_addr constant [35 x i8] c"segnum == -1 in find_hitpoint_uv()\00", align 1, !dbg !108
@GameBitmaps = external global [2620 x %struct._grs_bitmap], align 8
@Textures = external global [1200 x %struct.bitmap_index], align 2
@.str.11 = private unnamed_addr constant [41 x i8] c"segnum == -1 in sphere_intersects_wall()\00", align 1, !dbg !110

; Function Attrs: mustprogress noinline nounwind ssp uwtable(sync)
define noundef i32 @_Z11oflow_checkii(i32 noundef %0, i32 noundef %1) #0 !dbg !1376 {
  %3 = alloca i32, align 4
  %4 = alloca i32, align 4
  %5 = alloca i64, align 8
  store i32 %0, ptr %3, align 4
    #dbg_declare(ptr %3, !1380, !DIExpression(), !1381)
  store i32 %1, ptr %4, align 4
    #dbg_declare(ptr %4, !1382, !DIExpression(), !1383)
    #dbg_declare(ptr %5, !1384, !DIExpression(), !1385)
  %6 = load i32, ptr %3, align 4, !dbg !1386
  %7 = call i32 @llvm.abs.i32(i32 %6, i1 true), !dbg !1387
  %8 = sext i32 %7 to i64, !dbg !1387
  %9 = load i32, ptr %4, align 4, !dbg !1388
  %10 = call i32 @llvm.abs.i32(i32 %9, i1 true), !dbg !1389
  %11 = sext i32 %10 to i64, !dbg !1389
  %12 = mul nsw i64 %8, %11, !dbg !1390
  store i64 %12, ptr %5, align 8, !dbg !1385
  %13 = load i64, ptr %5, align 8, !dbg !1391
  %14 = ashr i64 %13, 47, !dbg !1392
  %15 = icmp ne i64 %14, 0, !dbg !1393
  %16 = zext i1 %15 to i64, !dbg !1393
  %17 = select i1 %15, i32 1, i32 0, !dbg !1393
  ret i32 %17, !dbg !1394
}

; Function Attrs: nocallback nofree nosync nounwind speculatable willreturn memory(none)
declare i32 @llvm.abs.i32(i32, i1 immarg) #1

; Function Attrs: mustprogress noinline ssp uwtable(sync)
define noundef i32 @_Z28find_plane_line_intersectionP10vms_vectorS0_S0_S0_S0_i(ptr noundef %0, ptr noundef %1, ptr noundef %2, ptr noundef %3, ptr noundef %4, i32 noundef %5) #2 !dbg !1395 {
  %7 = alloca i32, align 4
  %8 = alloca ptr, align 8
  %9 = alloca ptr, align 8
  %10 = alloca ptr, align 8
  %11 = alloca ptr, align 8
  %12 = alloca ptr, align 8
  %13 = alloca i32, align 4
  %14 = alloca %struct.vms_vector, align 4
  %15 = alloca %struct.vms_vector, align 4
  %16 = alloca i32, align 4
  %17 = alloca i32, align 4
  %18 = alloca i32, align 4
  store ptr %0, ptr %8, align 8
    #dbg_declare(ptr %8, !1399, !DIExpression(), !1400)
  store ptr %1, ptr %9, align 8
    #dbg_declare(ptr %9, !1401, !DIExpression(), !1402)
  store ptr %2, ptr %10, align 8
    #dbg_declare(ptr %10, !1403, !DIExpression(), !1404)
  store ptr %3, ptr %11, align 8
    #dbg_declare(ptr %11, !1405, !DIExpression(), !1406)
  store ptr %4, ptr %12, align 8
    #dbg_declare(ptr %12, !1407, !DIExpression(), !1408)
  store i32 %5, ptr %13, align 4
    #dbg_declare(ptr %13, !1409, !DIExpression(), !1410)
    #dbg_declare(ptr %14, !1411, !DIExpression(), !1412)
    #dbg_declare(ptr %15, !1413, !DIExpression(), !1414)
    #dbg_declare(ptr %16, !1415, !DIExpression(), !1416)
    #dbg_declare(ptr %17, !1417, !DIExpression(), !1418)
  %19 = load ptr, ptr %12, align 8, !dbg !1419
  %20 = load ptr, ptr %11, align 8, !dbg !1420
  %21 = call noundef ptr @_Z10vm_vec_subP10vms_vectorS0_S0_(ptr noundef %14, ptr noundef %19, ptr noundef %20), !dbg !1421
  %22 = load ptr, ptr %11, align 8, !dbg !1422
  %23 = load ptr, ptr %9, align 8, !dbg !1423
  %24 = call noundef ptr @_Z10vm_vec_subP10vms_vectorS0_S0_(ptr noundef %15, ptr noundef %22, ptr noundef %23), !dbg !1424
  %25 = load ptr, ptr %10, align 8, !dbg !1425
  %26 = call noundef i32 @_Z14vm_vec_dotprodP10vms_vectorS0_(ptr noundef %25, ptr noundef %15), !dbg !1425
  store i32 %26, ptr %16, align 4, !dbg !1426
  %27 = load ptr, ptr %10, align 8, !dbg !1427
  %28 = call noundef i32 @_Z14vm_vec_dotprodP10vms_vectorS0_(ptr noundef %27, ptr noundef %14), !dbg !1427
  %29 = sub nsw i32 0, %28, !dbg !1428
  store i32 %29, ptr %17, align 4, !dbg !1429
  %30 = load i32, ptr %13, align 4, !dbg !1430
  %31 = load i32, ptr %16, align 4, !dbg !1431
  %32 = sub nsw i32 %31, %30, !dbg !1431
  store i32 %32, ptr %16, align 4, !dbg !1431
  %33 = load i32, ptr %17, align 4, !dbg !1432
  %34 = icmp eq i32 %33, 0, !dbg !1434
  br i1 %34, label %55, label %35, !dbg !1435

35:                                               ; preds = %6
  %36 = load i32, ptr %17, align 4, !dbg !1436
  %37 = icmp sgt i32 %36, 0, !dbg !1437
  br i1 %37, label %38, label %48, !dbg !1438

38:                                               ; preds = %35
  %39 = load i32, ptr %16, align 4, !dbg !1439
  %40 = load i32, ptr %17, align 4, !dbg !1440
  %41 = icmp sgt i32 %39, %40, !dbg !1441
  br i1 %41, label %55, label %42, !dbg !1442

42:                                               ; preds = %38
  %43 = load i32, ptr %16, align 4, !dbg !1443
  %44 = sub nsw i32 0, %43, !dbg !1444
  %45 = ashr i32 %44, 15, !dbg !1445
  %46 = load i32, ptr %17, align 4, !dbg !1446
  %47 = icmp sge i32 %45, %46, !dbg !1447
  br i1 %47, label %55, label %48, !dbg !1448

48:                                               ; preds = %42, %35
  %49 = load i32, ptr %17, align 4, !dbg !1449
  %50 = icmp slt i32 %49, 0, !dbg !1450
  br i1 %50, label %51, label %56, !dbg !1451

51:                                               ; preds = %48
  %52 = load i32, ptr %16, align 4, !dbg !1452
  %53 = load i32, ptr %17, align 4, !dbg !1453
  %54 = icmp slt i32 %52, %53, !dbg !1454
  br i1 %54, label %55, label %56, !dbg !1448

55:                                               ; preds = %51, %42, %38, %6
  store i32 0, ptr %7, align 4, !dbg !1455
  br label %98, !dbg !1455

56:                                               ; preds = %51, %48
    #dbg_declare(ptr %18, !1456, !DIExpression(), !1458)
  %57 = load i32, ptr %16, align 4, !dbg !1459
  %58 = sext i32 %57 to i64, !dbg !1459
  %59 = call i64 @llvm.abs.i64(i64 %58, i1 true), !dbg !1461
  %60 = sdiv i64 %59, 32768, !dbg !1462
  %61 = load i32, ptr %17, align 4, !dbg !1463
  %62 = sext i32 %61 to i64, !dbg !1463
  %63 = call i64 @llvm.abs.i64(i64 %62, i1 true), !dbg !1464
  %64 = icmp sge i64 %60, %63, !dbg !1465
  br i1 %64, label %65, label %66, !dbg !1465

65:                                               ; preds = %56
  call void @_Z4Int3v(), !dbg !1466
  store i32 0, ptr %7, align 4, !dbg !1468
  br label %98, !dbg !1468

66:                                               ; preds = %56
  %67 = load i32, ptr %16, align 4, !dbg !1469
  %68 = load i32, ptr %17, align 4, !dbg !1470
  %69 = call noundef i32 @_Z6fixdivii(i32 noundef %67, i32 noundef %68), !dbg !1471
  store i32 %69, ptr %18, align 4, !dbg !1472
  %70 = load i32, ptr %18, align 4, !dbg !1473
  %71 = icmp sle i32 %70, 65536, !dbg !1473
  %72 = zext i1 %71 to i32, !dbg !1473
  call void @_Z7_AssertiPKcS0_i(i32 noundef %72, ptr noundef @.str, ptr noundef @.str.1, i32 noundef 127), !dbg !1473
  %73 = getelementptr inbounds nuw %struct.vms_vector, ptr %14, i32 0, i32 0, !dbg !1474
  %74 = load i32, ptr %73, align 4, !dbg !1474
  %75 = load i32, ptr %18, align 4, !dbg !1476
  %76 = call noundef i32 @_Z11oflow_checkii(i32 noundef %74, i32 noundef %75), !dbg !1477
  %77 = icmp ne i32 %76, 0, !dbg !1477
  br i1 %77, label %90, label %78, !dbg !1478

78:                                               ; preds = %66
  %79 = getelementptr inbounds nuw %struct.vms_vector, ptr %14, i32 0, i32 1, !dbg !1479
  %80 = load i32, ptr %79, align 4, !dbg !1479
  %81 = load i32, ptr %18, align 4, !dbg !1480
  %82 = call noundef i32 @_Z11oflow_checkii(i32 noundef %80, i32 noundef %81), !dbg !1481
  %83 = icmp ne i32 %82, 0, !dbg !1481
  br i1 %83, label %90, label %84, !dbg !1482

84:                                               ; preds = %78
  %85 = getelementptr inbounds nuw %struct.vms_vector, ptr %14, i32 0, i32 2, !dbg !1483
  %86 = load i32, ptr %85, align 4, !dbg !1483
  %87 = load i32, ptr %18, align 4, !dbg !1484
  %88 = call noundef i32 @_Z11oflow_checkii(i32 noundef %86, i32 noundef %87), !dbg !1485
  %89 = icmp ne i32 %88, 0, !dbg !1485
  br i1 %89, label %90, label %91, !dbg !1482

90:                                               ; preds = %84, %78, %66
  store i32 0, ptr %7, align 4, !dbg !1486
  br label %98, !dbg !1486

91:                                               ; preds = %84
  %92 = load i32, ptr %16, align 4, !dbg !1487
  %93 = load i32, ptr %17, align 4, !dbg !1488
  %94 = call noundef ptr @_Z13vm_vec_scale2P10vms_vectorii(ptr noundef %14, i32 noundef %92, i32 noundef %93), !dbg !1489
  %95 = load ptr, ptr %8, align 8, !dbg !1490
  %96 = load ptr, ptr %11, align 8, !dbg !1491
  %97 = call noundef ptr @_Z10vm_vec_addP10vms_vectorS0_S0_(ptr noundef %95, ptr noundef %96, ptr noundef %14), !dbg !1492
  store i32 1, ptr %7, align 4, !dbg !1493
  br label %98, !dbg !1493

98:                                               ; preds = %91, %90, %65, %55
  %99 = load i32, ptr %7, align 4, !dbg !1494
  ret i32 %99, !dbg !1494
}

declare noundef ptr @_Z10vm_vec_subP10vms_vectorS0_S0_(ptr noundef, ptr noundef, ptr noundef) #3

declare noundef i32 @_Z14vm_vec_dotprodP10vms_vectorS0_(ptr noundef, ptr noundef) #3

; Function Attrs: nocallback nofree nosync nounwind speculatable willreturn memory(none)
declare i64 @llvm.abs.i64(i64, i1 immarg) #1

declare void @_Z4Int3v() #3

; Function Attrs: mustprogress noinline nounwind ssp uwtable(sync)
define linkonce_odr noundef i32 @_Z6fixdivii(i32 noundef %0, i32 noundef %1) #0 !dbg !1495 {
  %3 = alloca i32, align 4
  %4 = alloca i32, align 4
  %5 = alloca i32, align 4
  store i32 %0, ptr %4, align 4
    #dbg_declare(ptr %4, !1498, !DIExpression(), !1499)
  store i32 %1, ptr %5, align 4
    #dbg_declare(ptr %5, !1500, !DIExpression(), !1501)
  %6 = load i32, ptr %5, align 4, !dbg !1502
  %7 = icmp eq i32 %6, 0, !dbg !1504
  br i1 %7, label %8, label %9, !dbg !1504

8:                                                ; preds = %2
  store i32 1, ptr %3, align 4, !dbg !1505
  br label %17, !dbg !1505

9:                                                ; preds = %2
  %10 = load i32, ptr %4, align 4, !dbg !1506
  %11 = sext i32 %10 to i64, !dbg !1506
  %12 = shl i64 %11, 16, !dbg !1507
  %13 = load i32, ptr %5, align 4, !dbg !1508
  %14 = sext i32 %13 to i64, !dbg !1508
  %15 = sdiv i64 %12, %14, !dbg !1509
  %16 = trunc i64 %15 to i32, !dbg !1510
  store i32 %16, ptr %3, align 4, !dbg !1511
  br label %17, !dbg !1511

17:                                               ; preds = %9, %8
  %18 = load i32, ptr %3, align 4, !dbg !1512
  ret i32 %18, !dbg !1512
}

declare void @_Z7_AssertiPKcS0_i(i32 noundef, ptr noundef, ptr noundef, i32 noundef) #3

declare noundef ptr @_Z13vm_vec_scale2P10vms_vectorii(ptr noundef, i32 noundef, i32 noundef) #3

declare noundef ptr @_Z10vm_vec_addP10vms_vectorS0_S0_(ptr noundef, ptr noundef, ptr noundef) #3

; Function Attrs: mustprogress noinline ssp uwtable(sync)
define noundef i32 @_Z19check_point_to_faceP10vms_vectorP4sideiiPi(ptr noundef %0, ptr noundef %1, i32 noundef %2, i32 noundef %3, ptr noundef %4) #2 !dbg !1513 {
  %6 = alloca ptr, align 8
  %7 = alloca ptr, align 8
  %8 = alloca i32, align 4
  %9 = alloca i32, align 4
  %10 = alloca ptr, align 8
  %11 = alloca ptr, align 8
  %12 = alloca %struct.vms_vector_array, align 4
  %13 = alloca %struct.vms_vector, align 4
  %14 = alloca i32, align 4
  %15 = alloca i32, align 4
  %16 = alloca i32, align 4
  %17 = alloca i32, align 4
  %18 = alloca i32, align 4
  %19 = alloca i32, align 4
  %20 = alloca i32, align 4
  %21 = alloca ptr, align 8
  %22 = alloca ptr, align 8
  %23 = alloca %struct.vec2d, align 4
  %24 = alloca %struct.vec2d, align 4
  %25 = alloca i32, align 4
  store ptr %0, ptr %6, align 8
    #dbg_declare(ptr %6, !1539, !DIExpression(), !1540)
  store ptr %1, ptr %7, align 8
    #dbg_declare(ptr %7, !1541, !DIExpression(), !1542)
  store i32 %2, ptr %8, align 4
    #dbg_declare(ptr %8, !1543, !DIExpression(), !1544)
  store i32 %3, ptr %9, align 4
    #dbg_declare(ptr %9, !1545, !DIExpression(), !1546)
  store ptr %4, ptr %10, align 8
    #dbg_declare(ptr %10, !1547, !DIExpression(), !1548)
    #dbg_declare(ptr %11, !1549, !DIExpression(), !1550)
    #dbg_declare(ptr %12, !1551, !DIExpression(), !1552)
    #dbg_declare(ptr %13, !1553, !DIExpression(), !1554)
    #dbg_declare(ptr %14, !1555, !DIExpression(), !1556)
    #dbg_declare(ptr %15, !1557, !DIExpression(), !1558)
    #dbg_declare(ptr %16, !1559, !DIExpression(), !1560)
    #dbg_declare(ptr %17, !1561, !DIExpression(), !1562)
    #dbg_declare(ptr %18, !1563, !DIExpression(), !1564)
    #dbg_declare(ptr %19, !1565, !DIExpression(), !1566)
    #dbg_declare(ptr %20, !1567, !DIExpression(), !1568)
    #dbg_declare(ptr %21, !1569, !DIExpression(), !1570)
    #dbg_declare(ptr %22, !1571, !DIExpression(), !1572)
  %26 = load ptr, ptr %7, align 8, !dbg !1573
  %27 = getelementptr inbounds nuw %struct.side, ptr %26, i32 0, i32 6, !dbg !1574
  %28 = load i32, ptr %8, align 4, !dbg !1575
  %29 = sext i32 %28 to i64, !dbg !1573
  %30 = getelementptr inbounds [2 x %struct.vms_vector], ptr %27, i64 0, i64 %29, !dbg !1573
  call void @llvm.memcpy.p0.p0.i64(ptr align 4 %12, ptr align 4 %30, i64 12, i1 false), !dbg !1576
  %31 = load ptr, ptr %6, align 8, !dbg !1577
  store ptr %31, ptr %11, align 8, !dbg !1578
  %32 = getelementptr inbounds nuw %struct.vms_vector_array, ptr %12, i32 0, i32 0, !dbg !1579
  %33 = getelementptr inbounds [3 x i32], ptr %32, i64 0, i64 0, !dbg !1580
  %34 = load i32, ptr %33, align 4, !dbg !1580
  %35 = sext i32 %34 to i64, !dbg !1580
  %36 = call i64 @llvm.abs.i64(i64 %35, i1 true), !dbg !1581
  %37 = trunc i64 %36 to i32, !dbg !1581
  %38 = getelementptr inbounds nuw %struct.vms_vector, ptr %13, i32 0, i32 0, !dbg !1582
  store i32 %37, ptr %38, align 4, !dbg !1583
  %39 = getelementptr inbounds nuw %struct.vms_vector_array, ptr %12, i32 0, i32 0, !dbg !1584
  %40 = getelementptr inbounds [3 x i32], ptr %39, i64 0, i64 1, !dbg !1585
  %41 = load i32, ptr %40, align 4, !dbg !1585
  %42 = sext i32 %41 to i64, !dbg !1585
  %43 = call i64 @llvm.abs.i64(i64 %42, i1 true), !dbg !1586
  %44 = trunc i64 %43 to i32, !dbg !1586
  %45 = getelementptr inbounds nuw %struct.vms_vector, ptr %13, i32 0, i32 1, !dbg !1587
  store i32 %44, ptr %45, align 4, !dbg !1588
  %46 = getelementptr inbounds nuw %struct.vms_vector_array, ptr %12, i32 0, i32 0, !dbg !1589
  %47 = getelementptr inbounds [3 x i32], ptr %46, i64 0, i64 2, !dbg !1590
  %48 = load i32, ptr %47, align 4, !dbg !1590
  %49 = sext i32 %48 to i64, !dbg !1590
  %50 = call i64 @llvm.abs.i64(i64 %49, i1 true), !dbg !1591
  %51 = trunc i64 %50 to i32, !dbg !1591
  %52 = getelementptr inbounds nuw %struct.vms_vector, ptr %13, i32 0, i32 2, !dbg !1592
  store i32 %51, ptr %52, align 4, !dbg !1593
  %53 = getelementptr inbounds nuw %struct.vms_vector, ptr %13, i32 0, i32 0, !dbg !1594
  %54 = load i32, ptr %53, align 4, !dbg !1594
  %55 = getelementptr inbounds nuw %struct.vms_vector, ptr %13, i32 0, i32 1, !dbg !1596
  %56 = load i32, ptr %55, align 4, !dbg !1596
  %57 = icmp sgt i32 %54, %56, !dbg !1597
  br i1 %57, label %58, label %67, !dbg !1597

58:                                               ; preds = %5
  %59 = getelementptr inbounds nuw %struct.vms_vector, ptr %13, i32 0, i32 0, !dbg !1598
  %60 = load i32, ptr %59, align 4, !dbg !1598
  %61 = getelementptr inbounds nuw %struct.vms_vector, ptr %13, i32 0, i32 2, !dbg !1600
  %62 = load i32, ptr %61, align 4, !dbg !1600
  %63 = icmp sgt i32 %60, %62, !dbg !1601
  br i1 %63, label %64, label %65, !dbg !1601

64:                                               ; preds = %58
  store i32 0, ptr %14, align 4, !dbg !1602
  br label %66, !dbg !1603

65:                                               ; preds = %58
  store i32 2, ptr %14, align 4, !dbg !1604
  br label %66

66:                                               ; preds = %65, %64
  br label %76, !dbg !1600

67:                                               ; preds = %5
  %68 = getelementptr inbounds nuw %struct.vms_vector, ptr %13, i32 0, i32 1, !dbg !1605
  %69 = load i32, ptr %68, align 4, !dbg !1605
  %70 = getelementptr inbounds nuw %struct.vms_vector, ptr %13, i32 0, i32 2, !dbg !1607
  %71 = load i32, ptr %70, align 4, !dbg !1607
  %72 = icmp sgt i32 %69, %71, !dbg !1608
  br i1 %72, label %73, label %74, !dbg !1608

73:                                               ; preds = %67
  store i32 1, ptr %14, align 4, !dbg !1609
  br label %75, !dbg !1610

74:                                               ; preds = %67
  store i32 2, ptr %14, align 4, !dbg !1611
  br label %75

75:                                               ; preds = %74, %73
  br label %76

76:                                               ; preds = %75, %66
  %77 = getelementptr inbounds nuw %struct.vms_vector_array, ptr %12, i32 0, i32 0, !dbg !1612
  %78 = load i32, ptr %14, align 4, !dbg !1614
  %79 = sext i32 %78 to i64, !dbg !1615
  %80 = getelementptr inbounds [3 x i32], ptr %77, i64 0, i64 %79, !dbg !1615
  %81 = load i32, ptr %80, align 4, !dbg !1615
  %82 = icmp sgt i32 %81, 0, !dbg !1616
  br i1 %82, label %83, label %94, !dbg !1616

83:                                               ; preds = %76
  %84 = load i32, ptr %14, align 4, !dbg !1617
  %85 = sext i32 %84 to i64, !dbg !1619
  %86 = getelementptr inbounds [3 x [2 x i32]], ptr @ij_table, i64 0, i64 %85, !dbg !1619
  %87 = getelementptr inbounds [2 x i32], ptr %86, i64 0, i64 0, !dbg !1619
  %88 = load i32, ptr %87, align 4, !dbg !1619
  store i32 %88, ptr %15, align 4, !dbg !1620
  %89 = load i32, ptr %14, align 4, !dbg !1621
  %90 = sext i32 %89 to i64, !dbg !1622
  %91 = getelementptr inbounds [3 x [2 x i32]], ptr @ij_table, i64 0, i64 %90, !dbg !1622
  %92 = getelementptr inbounds [2 x i32], ptr %91, i64 0, i64 1, !dbg !1622
  %93 = load i32, ptr %92, align 4, !dbg !1622
  store i32 %93, ptr %16, align 4, !dbg !1623
  br label %105, !dbg !1624

94:                                               ; preds = %76
  %95 = load i32, ptr %14, align 4, !dbg !1625
  %96 = sext i32 %95 to i64, !dbg !1627
  %97 = getelementptr inbounds [3 x [2 x i32]], ptr @ij_table, i64 0, i64 %96, !dbg !1627
  %98 = getelementptr inbounds [2 x i32], ptr %97, i64 0, i64 1, !dbg !1627
  %99 = load i32, ptr %98, align 4, !dbg !1627
  store i32 %99, ptr %15, align 4, !dbg !1628
  %100 = load i32, ptr %14, align 4, !dbg !1629
  %101 = sext i32 %100 to i64, !dbg !1630
  %102 = getelementptr inbounds [3 x [2 x i32]], ptr @ij_table, i64 0, i64 %101, !dbg !1630
  %103 = getelementptr inbounds [2 x i32], ptr %102, i64 0, i64 0, !dbg !1630
  %104 = load i32, ptr %103, align 4, !dbg !1630
  store i32 %104, ptr %16, align 4, !dbg !1631
  br label %105

105:                                              ; preds = %94, %83
  %106 = load ptr, ptr %11, align 8, !dbg !1632
  %107 = getelementptr inbounds nuw %struct.vms_vector_array, ptr %106, i32 0, i32 0, !dbg !1633
  %108 = load i32, ptr %15, align 4, !dbg !1634
  %109 = sext i32 %108 to i64, !dbg !1632
  %110 = getelementptr inbounds [3 x i32], ptr %107, i64 0, i64 %109, !dbg !1632
  %111 = load i32, ptr %110, align 4, !dbg !1632
  store i32 %111, ptr %19, align 4, !dbg !1635
  %112 = load ptr, ptr %11, align 8, !dbg !1636
  %113 = getelementptr inbounds nuw %struct.vms_vector_array, ptr %112, i32 0, i32 0, !dbg !1637
  %114 = load i32, ptr %16, align 4, !dbg !1638
  %115 = sext i32 %114 to i64, !dbg !1636
  %116 = getelementptr inbounds [3 x i32], ptr %113, i64 0, i64 %115, !dbg !1636
  %117 = load i32, ptr %116, align 4, !dbg !1636
  store i32 %117, ptr %20, align 4, !dbg !1639
  store i32 0, ptr %18, align 4, !dbg !1640
  store i32 0, ptr %17, align 4, !dbg !1642
  br label %118, !dbg !1643

118:                                              ; preds = %211, %105
  %119 = load i32, ptr %17, align 4, !dbg !1644
  %120 = load i32, ptr %9, align 4, !dbg !1646
  %121 = icmp slt i32 %119, %120, !dbg !1647
  br i1 %121, label %122, label %214, !dbg !1648

122:                                              ; preds = %118
    #dbg_declare(ptr %23, !1649, !DIExpression(), !1656)
    #dbg_declare(ptr %24, !1657, !DIExpression(), !1658)
    #dbg_declare(ptr %25, !1659, !DIExpression(), !1660)
  %123 = load ptr, ptr %10, align 8, !dbg !1661
  %124 = load i32, ptr %8, align 4, !dbg !1662
  %125 = mul nsw i32 %124, 3, !dbg !1663
  %126 = load i32, ptr %17, align 4, !dbg !1664
  %127 = add nsw i32 %125, %126, !dbg !1665
  %128 = sext i32 %127 to i64, !dbg !1661
  %129 = getelementptr inbounds i32, ptr %123, i64 %128, !dbg !1661
  %130 = load i32, ptr %129, align 4, !dbg !1661
  %131 = sext i32 %130 to i64, !dbg !1666
  %132 = getelementptr inbounds [0 x %struct.vms_vector], ptr @Vertices, i64 0, i64 %131, !dbg !1666
  store ptr %132, ptr %21, align 8, !dbg !1667
  %133 = load ptr, ptr %10, align 8, !dbg !1668
  %134 = load i32, ptr %8, align 4, !dbg !1669
  %135 = mul nsw i32 %134, 3, !dbg !1670
  %136 = load i32, ptr %17, align 4, !dbg !1671
  %137 = add nsw i32 %136, 1, !dbg !1672
  %138 = load i32, ptr %9, align 4, !dbg !1673
  %139 = srem i32 %137, %138, !dbg !1674
  %140 = add nsw i32 %135, %139, !dbg !1675
  %141 = sext i32 %140 to i64, !dbg !1668
  %142 = getelementptr inbounds i32, ptr %133, i64 %141, !dbg !1668
  %143 = load i32, ptr %142, align 4, !dbg !1668
  %144 = sext i32 %143 to i64, !dbg !1676
  %145 = getelementptr inbounds [0 x %struct.vms_vector], ptr @Vertices, i64 0, i64 %144, !dbg !1676
  store ptr %145, ptr %22, align 8, !dbg !1677
  %146 = load ptr, ptr %22, align 8, !dbg !1678
  %147 = getelementptr inbounds nuw %struct.vms_vector_array, ptr %146, i32 0, i32 0, !dbg !1679
  %148 = load i32, ptr %15, align 4, !dbg !1680
  %149 = sext i32 %148 to i64, !dbg !1678
  %150 = getelementptr inbounds [3 x i32], ptr %147, i64 0, i64 %149, !dbg !1678
  %151 = load i32, ptr %150, align 4, !dbg !1678
  %152 = load ptr, ptr %21, align 8, !dbg !1681
  %153 = getelementptr inbounds nuw %struct.vms_vector_array, ptr %152, i32 0, i32 0, !dbg !1682
  %154 = load i32, ptr %15, align 4, !dbg !1683
  %155 = sext i32 %154 to i64, !dbg !1681
  %156 = getelementptr inbounds [3 x i32], ptr %153, i64 0, i64 %155, !dbg !1681
  %157 = load i32, ptr %156, align 4, !dbg !1681
  %158 = sub nsw i32 %151, %157, !dbg !1684
  %159 = getelementptr inbounds nuw %struct.vec2d, ptr %23, i32 0, i32 0, !dbg !1685
  store i32 %158, ptr %159, align 4, !dbg !1686
  %160 = load ptr, ptr %22, align 8, !dbg !1687
  %161 = getelementptr inbounds nuw %struct.vms_vector_array, ptr %160, i32 0, i32 0, !dbg !1688
  %162 = load i32, ptr %16, align 4, !dbg !1689
  %163 = sext i32 %162 to i64, !dbg !1687
  %164 = getelementptr inbounds [3 x i32], ptr %161, i64 0, i64 %163, !dbg !1687
  %165 = load i32, ptr %164, align 4, !dbg !1687
  %166 = load ptr, ptr %21, align 8, !dbg !1690
  %167 = getelementptr inbounds nuw %struct.vms_vector_array, ptr %166, i32 0, i32 0, !dbg !1691
  %168 = load i32, ptr %16, align 4, !dbg !1692
  %169 = sext i32 %168 to i64, !dbg !1690
  %170 = getelementptr inbounds [3 x i32], ptr %167, i64 0, i64 %169, !dbg !1690
  %171 = load i32, ptr %170, align 4, !dbg !1690
  %172 = sub nsw i32 %165, %171, !dbg !1693
  %173 = getelementptr inbounds nuw %struct.vec2d, ptr %23, i32 0, i32 1, !dbg !1694
  store i32 %172, ptr %173, align 4, !dbg !1695
  %174 = load i32, ptr %19, align 4, !dbg !1696
  %175 = load ptr, ptr %21, align 8, !dbg !1697
  %176 = getelementptr inbounds nuw %struct.vms_vector_array, ptr %175, i32 0, i32 0, !dbg !1698
  %177 = load i32, ptr %15, align 4, !dbg !1699
  %178 = sext i32 %177 to i64, !dbg !1697
  %179 = getelementptr inbounds [3 x i32], ptr %176, i64 0, i64 %178, !dbg !1697
  %180 = load i32, ptr %179, align 4, !dbg !1697
  %181 = sub nsw i32 %174, %180, !dbg !1700
  %182 = getelementptr inbounds nuw %struct.vec2d, ptr %24, i32 0, i32 0, !dbg !1701
  store i32 %181, ptr %182, align 4, !dbg !1702
  %183 = load i32, ptr %20, align 4, !dbg !1703
  %184 = load ptr, ptr %21, align 8, !dbg !1704
  %185 = getelementptr inbounds nuw %struct.vms_vector_array, ptr %184, i32 0, i32 0, !dbg !1705
  %186 = load i32, ptr %16, align 4, !dbg !1706
  %187 = sext i32 %186 to i64, !dbg !1704
  %188 = getelementptr inbounds [3 x i32], ptr %185, i64 0, i64 %187, !dbg !1704
  %189 = load i32, ptr %188, align 4, !dbg !1704
  %190 = sub nsw i32 %183, %189, !dbg !1707
  %191 = getelementptr inbounds nuw %struct.vec2d, ptr %24, i32 0, i32 1, !dbg !1708
  store i32 %190, ptr %191, align 4, !dbg !1709
  %192 = getelementptr inbounds nuw %struct.vec2d, ptr %24, i32 0, i32 0, !dbg !1710
  %193 = load i32, ptr %192, align 4, !dbg !1710
  %194 = getelementptr inbounds nuw %struct.vec2d, ptr %23, i32 0, i32 1, !dbg !1711
  %195 = load i32, ptr %194, align 4, !dbg !1711
  %196 = call noundef i32 @_Z6fixmulii(i32 noundef %193, i32 noundef %195), !dbg !1712
  %197 = getelementptr inbounds nuw %struct.vec2d, ptr %24, i32 0, i32 1, !dbg !1713
  %198 = load i32, ptr %197, align 4, !dbg !1713
  %199 = getelementptr inbounds nuw %struct.vec2d, ptr %23, i32 0, i32 0, !dbg !1714
  %200 = load i32, ptr %199, align 4, !dbg !1714
  %201 = call noundef i32 @_Z6fixmulii(i32 noundef %198, i32 noundef %200), !dbg !1715
  %202 = sub nsw i32 %196, %201, !dbg !1716
  store i32 %202, ptr %25, align 4, !dbg !1717
  %203 = load i32, ptr %25, align 4, !dbg !1718
  %204 = icmp slt i32 %203, 0, !dbg !1720
  br i1 %204, label %205, label %210, !dbg !1720

205:                                              ; preds = %122
  %206 = load i32, ptr %17, align 4, !dbg !1721
  %207 = shl i32 1, %206, !dbg !1722
  %208 = load i32, ptr %18, align 4, !dbg !1723
  %209 = or i32 %208, %207, !dbg !1723
  store i32 %209, ptr %18, align 4, !dbg !1723
  br label %210, !dbg !1724

210:                                              ; preds = %205, %122
  br label %211, !dbg !1725

211:                                              ; preds = %210
  %212 = load i32, ptr %17, align 4, !dbg !1726
  %213 = add nsw i32 %212, 1, !dbg !1726
  store i32 %213, ptr %17, align 4, !dbg !1726
  br label %118, !dbg !1727, !llvm.loop !1728

214:                                              ; preds = %118
  %215 = load i32, ptr %18, align 4, !dbg !1731
  ret i32 %215, !dbg !1732
}

; Function Attrs: nocallback nofree nounwind willreturn memory(argmem: readwrite)
declare void @llvm.memcpy.p0.p0.i64(ptr noalias nocapture writeonly, ptr noalias nocapture readonly, i64, i1 immarg) #4

; Function Attrs: mustprogress noinline nounwind ssp uwtable(sync)
define linkonce_odr noundef i32 @_Z6fixmulii(i32 noundef %0, i32 noundef %1) #0 !dbg !1733 {
  %3 = alloca i32, align 4
  %4 = alloca i32, align 4
  store i32 %0, ptr %3, align 4
    #dbg_declare(ptr %3, !1734, !DIExpression(), !1735)
  store i32 %1, ptr %4, align 4
    #dbg_declare(ptr %4, !1736, !DIExpression(), !1737)
  %5 = load i32, ptr %3, align 4, !dbg !1738
  %6 = sext i32 %5 to i64, !dbg !1738
  %7 = load i32, ptr %4, align 4, !dbg !1739
  %8 = sext i32 %7 to i64, !dbg !1739
  %9 = mul nsw i64 %6, %8, !dbg !1740
  %10 = ashr i64 %9, 16, !dbg !1741
  %11 = trunc i64 %10 to i32, !dbg !1742
  ret i32 %11, !dbg !1743
}

; Function Attrs: mustprogress noinline ssp uwtable(sync)
define noundef i32 @_Z20check_sphere_to_faceP10vms_vectorP4sideiiiPi(ptr noundef %0, ptr noundef %1, i32 noundef %2, i32 noundef %3, i32 noundef %4, ptr noundef %5) #2 !dbg !1744 {
  %7 = alloca i32, align 4
  %8 = alloca ptr, align 8
  %9 = alloca ptr, align 8
  %10 = alloca i32, align 4
  %11 = alloca i32, align 4
  %12 = alloca i32, align 4
  %13 = alloca ptr, align 8
  %14 = alloca %struct.vms_vector, align 4
  %15 = alloca i32, align 4
  %16 = alloca %struct.vms_vector, align 4
  %17 = alloca %struct.vms_vector, align 4
  %18 = alloca %struct.vms_vector, align 4
  %19 = alloca i32, align 4
  %20 = alloca i32, align 4
  %21 = alloca i32, align 4
  %22 = alloca ptr, align 8
  %23 = alloca ptr, align 8
  %24 = alloca i32, align 4
  %25 = alloca i32, align 4
  store ptr %0, ptr %8, align 8
    #dbg_declare(ptr %8, !1747, !DIExpression(), !1748)
  store ptr %1, ptr %9, align 8
    #dbg_declare(ptr %9, !1749, !DIExpression(), !1750)
  store i32 %2, ptr %10, align 4
    #dbg_declare(ptr %10, !1751, !DIExpression(), !1752)
  store i32 %3, ptr %11, align 4
    #dbg_declare(ptr %11, !1753, !DIExpression(), !1754)
  store i32 %4, ptr %12, align 4
    #dbg_declare(ptr %12, !1755, !DIExpression(), !1756)
  store ptr %5, ptr %13, align 8
    #dbg_declare(ptr %13, !1757, !DIExpression(), !1758)
    #dbg_declare(ptr %14, !1759, !DIExpression(), !1760)
  %26 = load ptr, ptr %8, align 8, !dbg !1761
  call void @llvm.memcpy.p0.p0.i64(ptr align 4 %14, ptr align 4 %26, i64 12, i1 false), !dbg !1762
    #dbg_declare(ptr %15, !1763, !DIExpression(), !1764)
  %27 = load ptr, ptr %8, align 8, !dbg !1765
  %28 = load ptr, ptr %9, align 8, !dbg !1766
  %29 = load i32, ptr %10, align 4, !dbg !1767
  %30 = load i32, ptr %11, align 4, !dbg !1768
  %31 = load ptr, ptr %13, align 8, !dbg !1769
  %32 = call noundef i32 @_Z19check_point_to_faceP10vms_vectorP4sideiiPi(ptr noundef %27, ptr noundef %28, i32 noundef %29, i32 noundef %30, ptr noundef %31), !dbg !1770
  store i32 %32, ptr %15, align 4, !dbg !1771
  %33 = load i32, ptr %15, align 4, !dbg !1772
  %34 = icmp eq i32 %33, 0, !dbg !1774
  br i1 %34, label %35, label %36, !dbg !1774

35:                                               ; preds = %6
  store i32 1, ptr %7, align 4, !dbg !1775
  br label %120, !dbg !1775

36:                                               ; preds = %6
    #dbg_declare(ptr %16, !1776, !DIExpression(), !1778)
    #dbg_declare(ptr %17, !1779, !DIExpression(), !1780)
    #dbg_declare(ptr %18, !1781, !DIExpression(), !1782)
    #dbg_declare(ptr %19, !1783, !DIExpression(), !1784)
    #dbg_declare(ptr %20, !1785, !DIExpression(), !1786)
    #dbg_declare(ptr %21, !1787, !DIExpression(), !1788)
    #dbg_declare(ptr %22, !1789, !DIExpression(), !1790)
    #dbg_declare(ptr %23, !1791, !DIExpression(), !1792)
    #dbg_declare(ptr %24, !1793, !DIExpression(), !1794)
    #dbg_declare(ptr %25, !1795, !DIExpression(), !1796)
  store i32 0, ptr %25, align 4, !dbg !1797
  br label %37, !dbg !1799

37:                                               ; preds = %43, %36
  %38 = load i32, ptr %15, align 4, !dbg !1800
  %39 = and i32 %38, 1, !dbg !1802
  %40 = icmp ne i32 %39, 0, !dbg !1803
  %41 = xor i1 %40, true, !dbg !1804
  br i1 %41, label %42, label %48, !dbg !1805

42:                                               ; preds = %37
  br label %43, !dbg !1805

43:                                               ; preds = %42
  %44 = load i32, ptr %15, align 4, !dbg !1806
  %45 = lshr i32 %44, 1, !dbg !1806
  store i32 %45, ptr %15, align 4, !dbg !1806
  %46 = load i32, ptr %25, align 4, !dbg !1807
  %47 = add nsw i32 %46, 1, !dbg !1807
  store i32 %47, ptr %25, align 4, !dbg !1807
  br label %37, !dbg !1808, !llvm.loop !1809

48:                                               ; preds = %37
  %49 = load ptr, ptr %13, align 8, !dbg !1811
  %50 = load i32, ptr %10, align 4, !dbg !1812
  %51 = mul nsw i32 %50, 3, !dbg !1813
  %52 = load i32, ptr %25, align 4, !dbg !1814
  %53 = add nsw i32 %51, %52, !dbg !1815
  %54 = sext i32 %53 to i64, !dbg !1811
  %55 = getelementptr inbounds i32, ptr %49, i64 %54, !dbg !1811
  %56 = load i32, ptr %55, align 4, !dbg !1811
  %57 = sext i32 %56 to i64, !dbg !1816
  %58 = getelementptr inbounds [0 x %struct.vms_vector], ptr @Vertices, i64 0, i64 %57, !dbg !1816
  store ptr %58, ptr %22, align 8, !dbg !1817
  %59 = load ptr, ptr %13, align 8, !dbg !1818
  %60 = load i32, ptr %10, align 4, !dbg !1819
  %61 = mul nsw i32 %60, 3, !dbg !1820
  %62 = load i32, ptr %25, align 4, !dbg !1821
  %63 = add nsw i32 %62, 1, !dbg !1822
  %64 = load i32, ptr %11, align 4, !dbg !1823
  %65 = srem i32 %63, %64, !dbg !1824
  %66 = add nsw i32 %61, %65, !dbg !1825
  %67 = sext i32 %66 to i64, !dbg !1818
  %68 = getelementptr inbounds i32, ptr %59, i64 %67, !dbg !1818
  %69 = load i32, ptr %68, align 4, !dbg !1818
  %70 = sext i32 %69 to i64, !dbg !1826
  %71 = getelementptr inbounds [0 x %struct.vms_vector], ptr @Vertices, i64 0, i64 %70, !dbg !1826
  store ptr %71, ptr %23, align 8, !dbg !1827
  %72 = load ptr, ptr %22, align 8, !dbg !1828
  %73 = call noundef ptr @_Z10vm_vec_subP10vms_vectorS0_S0_(ptr noundef %17, ptr noundef %14, ptr noundef %72), !dbg !1829
  %74 = load ptr, ptr %23, align 8, !dbg !1830
  %75 = load ptr, ptr %22, align 8, !dbg !1831
  %76 = call noundef i32 @_Z21vm_vec_normalized_dirP10vms_vectorS0_S0_(ptr noundef %16, ptr noundef %74, ptr noundef %75), !dbg !1832
  store i32 %76, ptr %19, align 4, !dbg !1833
  %77 = call noundef i32 @_Z14vm_vec_dotprodP10vms_vectorS0_(ptr noundef %16, ptr noundef %17), !dbg !1834
  store i32 %77, ptr %20, align 4, !dbg !1835
  %78 = load i32, ptr %20, align 4, !dbg !1836
  %79 = load i32, ptr %12, align 4, !dbg !1838
  %80 = add nsw i32 %78, %79, !dbg !1839
  %81 = icmp slt i32 %80, 0, !dbg !1840
  br i1 %81, label %82, label %83, !dbg !1840

82:                                               ; preds = %48
  store i32 0, ptr %7, align 4, !dbg !1841
  br label %120, !dbg !1841

83:                                               ; preds = %48
  %84 = load i32, ptr %20, align 4, !dbg !1842
  %85 = load i32, ptr %12, align 4, !dbg !1844
  %86 = sub nsw i32 %84, %85, !dbg !1845
  %87 = load i32, ptr %19, align 4, !dbg !1846
  %88 = icmp sgt i32 %86, %87, !dbg !1847
  br i1 %88, label %89, label %90, !dbg !1847

89:                                               ; preds = %83
  store i32 0, ptr %7, align 4, !dbg !1848
  br label %120, !dbg !1848

90:                                               ; preds = %83
  store i32 3, ptr %24, align 4, !dbg !1849
  %91 = load i32, ptr %20, align 4, !dbg !1850
  %92 = icmp slt i32 %91, 0, !dbg !1852
  br i1 %92, label %93, label %95, !dbg !1852

93:                                               ; preds = %90
  %94 = load ptr, ptr %22, align 8, !dbg !1853
  call void @llvm.memcpy.p0.p0.i64(ptr align 4 %18, ptr align 4 %94, i64 12, i1 false), !dbg !1854
  br label %106, !dbg !1855

95:                                               ; preds = %90
  %96 = load i32, ptr %20, align 4, !dbg !1856
  %97 = load i32, ptr %19, align 4, !dbg !1858
  %98 = icmp sgt i32 %96, %97, !dbg !1859
  br i1 %98, label %99, label %101, !dbg !1859

99:                                               ; preds = %95
  %100 = load ptr, ptr %23, align 8, !dbg !1860
  call void @llvm.memcpy.p0.p0.i64(ptr align 4 %18, ptr align 4 %100, i64 12, i1 false), !dbg !1861
  br label %105, !dbg !1862

101:                                              ; preds = %95
  store i32 2, ptr %24, align 4, !dbg !1863
  %102 = load ptr, ptr %22, align 8, !dbg !1865
  %103 = load i32, ptr %20, align 4, !dbg !1866
  %104 = call noundef ptr @_Z16vm_vec_scale_addP10vms_vectorS0_S0_i(ptr noundef %18, ptr noundef %102, ptr noundef %16, i32 noundef %103), !dbg !1867
  br label %105

105:                                              ; preds = %101, %99
  br label %106

106:                                              ; preds = %105, %93
  %107 = call noundef i32 @_Z11vm_vec_distP10vms_vectorS0_(ptr noundef %14, ptr noundef %18), !dbg !1868
  store i32 %107, ptr %21, align 4, !dbg !1869
  %108 = load i32, ptr %21, align 4, !dbg !1870
  %109 = load i32, ptr %12, align 4, !dbg !1872
  %110 = icmp sle i32 %108, %109, !dbg !1873
  br i1 %110, label %111, label %119, !dbg !1873

111:                                              ; preds = %106
  %112 = load i32, ptr %24, align 4, !dbg !1874
  %113 = icmp eq i32 %112, 3, !dbg !1875
  br i1 %113, label %114, label %115, !dbg !1876

114:                                              ; preds = %111
  br label %117, !dbg !1876

115:                                              ; preds = %111
  %116 = load i32, ptr %24, align 4, !dbg !1877
  br label %117, !dbg !1876

117:                                              ; preds = %115, %114
  %118 = phi i32 [ 0, %114 ], [ %116, %115 ], !dbg !1876
  store i32 %118, ptr %7, align 4, !dbg !1878
  br label %120, !dbg !1878

119:                                              ; preds = %106
  store i32 0, ptr %7, align 4, !dbg !1879
  br label %120, !dbg !1879

120:                                              ; preds = %119, %117, %89, %82, %35
  %121 = load i32, ptr %7, align 4, !dbg !1880
  ret i32 %121, !dbg !1880
}

declare noundef i32 @_Z21vm_vec_normalized_dirP10vms_vectorS0_S0_(ptr noundef, ptr noundef, ptr noundef) #3

declare noundef ptr @_Z16vm_vec_scale_addP10vms_vectorS0_S0_i(ptr noundef, ptr noundef, ptr noundef, i32 noundef) #3

declare noundef i32 @_Z11vm_vec_distP10vms_vectorS0_(ptr noundef, ptr noundef) #3

; Function Attrs: mustprogress noinline ssp uwtable(sync)
define noundef i32 @_Z18check_line_to_faceP10vms_vectorS0_S0_P7segmentiiii(ptr noundef %0, ptr noundef %1, ptr noundef %2, ptr noundef %3, i32 noundef %4, i32 noundef %5, i32 noundef %6, i32 noundef %7) #2 !dbg !1881 {
  %9 = alloca i32, align 4
  %10 = alloca ptr, align 8
  %11 = alloca ptr, align 8
  %12 = alloca ptr, align 8
  %13 = alloca ptr, align 8
  %14 = alloca i32, align 4
  %15 = alloca i32, align 4
  %16 = alloca i32, align 4
  %17 = alloca i32, align 4
  %18 = alloca %struct.vms_vector, align 4
  %19 = alloca i32, align 4
  %20 = alloca ptr, align 8
  %21 = alloca [6 x i32], align 4
  %22 = alloca i32, align 4
  %23 = alloca i32, align 4
  %24 = alloca %struct.vms_vector, align 4
  %25 = alloca i32, align 4
  store ptr %0, ptr %10, align 8
    #dbg_declare(ptr %10, !1897, !DIExpression(), !1898)
  store ptr %1, ptr %11, align 8
    #dbg_declare(ptr %11, !1899, !DIExpression(), !1900)
  store ptr %2, ptr %12, align 8
    #dbg_declare(ptr %12, !1901, !DIExpression(), !1902)
  store ptr %3, ptr %13, align 8
    #dbg_declare(ptr %13, !1903, !DIExpression(), !1904)
  store i32 %4, ptr %14, align 4
    #dbg_declare(ptr %14, !1905, !DIExpression(), !1906)
  store i32 %5, ptr %15, align 4
    #dbg_declare(ptr %15, !1907, !DIExpression(), !1908)
  store i32 %6, ptr %16, align 4
    #dbg_declare(ptr %16, !1909, !DIExpression(), !1910)
  store i32 %7, ptr %17, align 4
    #dbg_declare(ptr %17, !1911, !DIExpression(), !1912)
  %26 = load ptr, ptr %13, align 8, !dbg !1913
  %27 = ptrtoint ptr %26 to i64, !dbg !1915
  %28 = sub i64 %27, ptrtoint (ptr @Segments to i64), !dbg !1915
  %29 = sdiv exact i64 %28, 512, !dbg !1915
  %30 = icmp eq i64 %29, -1, !dbg !1916
  br i1 %30, label %31, label %32, !dbg !1916

31:                                               ; preds = %8
  call void (ptr, ...) @_Z5ErrorPKcz(ptr noundef @.str.2), !dbg !1917
  br label %32, !dbg !1917

32:                                               ; preds = %31, %8
    #dbg_declare(ptr %18, !1918, !DIExpression(), !1920)
    #dbg_declare(ptr %19, !1921, !DIExpression(), !1922)
    #dbg_declare(ptr %20, !1923, !DIExpression(), !1925)
  %33 = load ptr, ptr %13, align 8, !dbg !1926
  %34 = getelementptr inbounds nuw %struct.segment, ptr %33, i32 0, i32 0, !dbg !1927
  %35 = load i32, ptr %14, align 4, !dbg !1928
  %36 = sext i32 %35 to i64, !dbg !1926
  %37 = getelementptr inbounds [6 x %struct.side], ptr %34, i64 0, i64 %36, !dbg !1926
  store ptr %37, ptr %20, align 8, !dbg !1925
    #dbg_declare(ptr %21, !1929, !DIExpression(), !1931)
    #dbg_declare(ptr %22, !1932, !DIExpression(), !1933)
    #dbg_declare(ptr %23, !1934, !DIExpression(), !1935)
    #dbg_declare(ptr %24, !1936, !DIExpression(), !1937)
  %38 = load ptr, ptr %13, align 8, !dbg !1938
  %39 = getelementptr inbounds nuw %struct.segment, ptr %38, i32 0, i32 0, !dbg !1939
  %40 = load i32, ptr %14, align 4, !dbg !1940
  %41 = sext i32 %40 to i64, !dbg !1938
  %42 = getelementptr inbounds [6 x %struct.side], ptr %39, i64 0, i64 %41, !dbg !1938
  %43 = getelementptr inbounds nuw %struct.side, ptr %42, i32 0, i32 6, !dbg !1941
  %44 = load i32, ptr %15, align 4, !dbg !1942
  %45 = sext i32 %44 to i64, !dbg !1938
  %46 = getelementptr inbounds [2 x %struct.vms_vector], ptr %43, i64 0, i64 %45, !dbg !1938
  call void @llvm.memcpy.p0.p0.i64(ptr align 4 %24, ptr align 4 %46, i64 12, i1 false), !dbg !1943
  %47 = getelementptr inbounds [6 x i32], ptr %21, i64 0, i64 0, !dbg !1944
  %48 = load ptr, ptr %13, align 8, !dbg !1945
  %49 = ptrtoint ptr %48 to i64, !dbg !1946
  %50 = sub i64 %49, ptrtoint (ptr @Segments to i64), !dbg !1946
  %51 = sdiv exact i64 %50, 512, !dbg !1946
  %52 = trunc i64 %51 to i32, !dbg !1945
  %53 = load i32, ptr %14, align 4, !dbg !1947
  call void @_Z23create_abs_vertex_listsPiS_ii(ptr noundef %22, ptr noundef %47, i32 noundef %52, i32 noundef %53), !dbg !1948
  %54 = load i32, ptr %22, align 4, !dbg !1949
  %55 = icmp eq i32 %54, 2, !dbg !1951
  br i1 %55, label %56, label %61, !dbg !1951

56:                                               ; preds = %32
  %57 = getelementptr inbounds [6 x i32], ptr %21, i64 0, i64 0, !dbg !1952
  %58 = getelementptr inbounds [6 x i32], ptr %21, i64 0, i64 2, !dbg !1954
  %59 = call noundef nonnull align 4 dereferenceable(4) ptr @_ZNSt3__13minB8ne200100IiEERKT_S3_S3_(ptr noundef nonnull align 4 dereferenceable(4) %57, ptr noundef nonnull align 4 dereferenceable(4) %58), !dbg !1955
  %60 = load i32, ptr %59, align 4, !dbg !1955
  store i32 %60, ptr %23, align 4, !dbg !1956
  br label %84, !dbg !1957

61:                                               ; preds = %32
    #dbg_declare(ptr %25, !1958, !DIExpression(), !1960)
  %62 = getelementptr inbounds [6 x i32], ptr %21, i64 0, i64 0, !dbg !1961
  %63 = load i32, ptr %62, align 4, !dbg !1961
  store i32 %63, ptr %23, align 4, !dbg !1962
  store i32 1, ptr %25, align 4, !dbg !1963
  br label %64, !dbg !1965

64:                                               ; preds = %80, %61
  %65 = load i32, ptr %25, align 4, !dbg !1966
  %66 = icmp slt i32 %65, 4, !dbg !1968
  br i1 %66, label %67, label %83, !dbg !1969

67:                                               ; preds = %64
  %68 = load i32, ptr %25, align 4, !dbg !1970
  %69 = sext i32 %68 to i64, !dbg !1972
  %70 = getelementptr inbounds [6 x i32], ptr %21, i64 0, i64 %69, !dbg !1972
  %71 = load i32, ptr %70, align 4, !dbg !1972
  %72 = load i32, ptr %23, align 4, !dbg !1973
  %73 = icmp slt i32 %71, %72, !dbg !1974
  br i1 %73, label %74, label %79, !dbg !1974

74:                                               ; preds = %67
  %75 = load i32, ptr %25, align 4, !dbg !1975
  %76 = sext i32 %75 to i64, !dbg !1976
  %77 = getelementptr inbounds [6 x i32], ptr %21, i64 0, i64 %76, !dbg !1976
  %78 = load i32, ptr %77, align 4, !dbg !1976
  store i32 %78, ptr %23, align 4, !dbg !1977
  br label %79, !dbg !1978

79:                                               ; preds = %74, %67
  br label %80, !dbg !1973

80:                                               ; preds = %79
  %81 = load i32, ptr %25, align 4, !dbg !1979
  %82 = add nsw i32 %81, 1, !dbg !1979
  store i32 %82, ptr %25, align 4, !dbg !1979
  br label %64, !dbg !1980, !llvm.loop !1981

83:                                               ; preds = %64
  br label %84

84:                                               ; preds = %83, %56
  %85 = load ptr, ptr %10, align 8, !dbg !1983
  %86 = load i32, ptr %23, align 4, !dbg !1984
  %87 = sext i32 %86 to i64, !dbg !1985
  %88 = getelementptr inbounds [0 x %struct.vms_vector], ptr @Vertices, i64 0, i64 %87, !dbg !1985
  %89 = load ptr, ptr %11, align 8, !dbg !1986
  %90 = load ptr, ptr %12, align 8, !dbg !1987
  %91 = load i32, ptr %17, align 4, !dbg !1988
  %92 = call noundef i32 @_Z28find_plane_line_intersectionP10vms_vectorS0_S0_S0_S0_i(ptr noundef %85, ptr noundef %88, ptr noundef %24, ptr noundef %89, ptr noundef %90, i32 noundef %91), !dbg !1989
  store i32 %92, ptr %19, align 4, !dbg !1990
  %93 = load i32, ptr %19, align 4, !dbg !1991
  %94 = icmp ne i32 %93, 0, !dbg !1991
  br i1 %94, label %96, label %95, !dbg !1993

95:                                               ; preds = %84
  store i32 0, ptr %9, align 4, !dbg !1994
  br label %111, !dbg !1994

96:                                               ; preds = %84
  %97 = load ptr, ptr %10, align 8, !dbg !1995
  call void @llvm.memcpy.p0.p0.i64(ptr align 4 %18, ptr align 4 %97, i64 12, i1 false), !dbg !1996
  %98 = load i32, ptr %17, align 4, !dbg !1997
  %99 = icmp ne i32 %98, 0, !dbg !1999
  br i1 %99, label %100, label %104, !dbg !1999

100:                                              ; preds = %96
  %101 = load i32, ptr %17, align 4, !dbg !2000
  %102 = sub nsw i32 0, %101, !dbg !2001
  %103 = call noundef ptr @_Z17vm_vec_scale_add2P10vms_vectorS0_i(ptr noundef %18, ptr noundef %24, i32 noundef %102), !dbg !2002
  br label %104, !dbg !2002

104:                                              ; preds = %100, %96
  %105 = load ptr, ptr %20, align 8, !dbg !2003
  %106 = load i32, ptr %15, align 4, !dbg !2004
  %107 = load i32, ptr %16, align 4, !dbg !2005
  %108 = load i32, ptr %17, align 4, !dbg !2006
  %109 = getelementptr inbounds [6 x i32], ptr %21, i64 0, i64 0, !dbg !2007
  %110 = call noundef i32 @_Z20check_sphere_to_faceP10vms_vectorP4sideiiiPi(ptr noundef %18, ptr noundef %105, i32 noundef %106, i32 noundef %107, i32 noundef %108, ptr noundef %109), !dbg !2008
  store i32 %110, ptr %9, align 4, !dbg !2009
  br label %111, !dbg !2009

111:                                              ; preds = %104, %95
  %112 = load i32, ptr %9, align 4, !dbg !2010
  ret i32 %112, !dbg !2010
}

declare void @_Z5ErrorPKcz(ptr noundef, ...) #3

declare void @_Z23create_abs_vertex_listsPiS_ii(ptr noundef, ptr noundef, i32 noundef, i32 noundef) #3

; Function Attrs: mustprogress noinline ssp uwtable(sync)
define linkonce_odr hidden noundef nonnull align 4 dereferenceable(4) ptr @_ZNSt3__13minB8ne200100IiEERKT_S3_S3_(ptr noundef nonnull align 4 dereferenceable(4) %0, ptr noundef nonnull align 4 dereferenceable(4) %1) #2 !dbg !2011 {
  %3 = alloca ptr, align 8
  %4 = alloca ptr, align 8
  %5 = alloca %"struct.std::__1::__less", align 1
  store ptr %0, ptr %3, align 8
    #dbg_declare(ptr %3, !2018, !DIExpression(), !2019)
  store ptr %1, ptr %4, align 8
    #dbg_declare(ptr %4, !2020, !DIExpression(), !2021)
  %6 = load ptr, ptr %3, align 8, !dbg !2022
  %7 = load ptr, ptr %4, align 8, !dbg !2023
  %8 = call noundef nonnull align 4 dereferenceable(4) ptr @_ZNSt3__13minB8ne200100IiNS_6__lessIvvEEEERKT_S5_S5_T0_(ptr noundef nonnull align 4 dereferenceable(4) %6, ptr noundef nonnull align 4 dereferenceable(4) %7), !dbg !2024
  ret ptr %8, !dbg !2025
}

declare noundef ptr @_Z17vm_vec_scale_add2P10vms_vectorS0_i(ptr noundef, ptr noundef, i32 noundef) #3

; Function Attrs: mustprogress noinline ssp uwtable(sync)
define noundef i32 @_Z14calc_det_valueP10vms_matrix(ptr noundef %0) #2 !dbg !2026 {
  %2 = alloca ptr, align 8
  store ptr %0, ptr %2, align 8
    #dbg_declare(ptr %2, !2036, !DIExpression(), !2037)
  %3 = load ptr, ptr %2, align 8, !dbg !2038
  %4 = getelementptr inbounds nuw %struct.vms_matrix, ptr %3, i32 0, i32 0, !dbg !2039
  %5 = getelementptr inbounds nuw %struct.vms_vector, ptr %4, i32 0, i32 0, !dbg !2040
  %6 = load i32, ptr %5, align 4, !dbg !2040
  %7 = load ptr, ptr %2, align 8, !dbg !2041
  %8 = getelementptr inbounds nuw %struct.vms_matrix, ptr %7, i32 0, i32 1, !dbg !2042
  %9 = getelementptr inbounds nuw %struct.vms_vector, ptr %8, i32 0, i32 1, !dbg !2043
  %10 = load i32, ptr %9, align 4, !dbg !2043
  %11 = load ptr, ptr %2, align 8, !dbg !2044
  %12 = getelementptr inbounds nuw %struct.vms_matrix, ptr %11, i32 0, i32 2, !dbg !2045
  %13 = getelementptr inbounds nuw %struct.vms_vector, ptr %12, i32 0, i32 2, !dbg !2046
  %14 = load i32, ptr %13, align 4, !dbg !2046
  %15 = call noundef i32 @_Z6fixmulii(i32 noundef %10, i32 noundef %14), !dbg !2047
  %16 = call noundef i32 @_Z6fixmulii(i32 noundef %6, i32 noundef %15), !dbg !2048
  %17 = load ptr, ptr %2, align 8, !dbg !2049
  %18 = getelementptr inbounds nuw %struct.vms_matrix, ptr %17, i32 0, i32 0, !dbg !2050
  %19 = getelementptr inbounds nuw %struct.vms_vector, ptr %18, i32 0, i32 0, !dbg !2051
  %20 = load i32, ptr %19, align 4, !dbg !2051
  %21 = load ptr, ptr %2, align 8, !dbg !2052
  %22 = getelementptr inbounds nuw %struct.vms_matrix, ptr %21, i32 0, i32 1, !dbg !2053
  %23 = getelementptr inbounds nuw %struct.vms_vector, ptr %22, i32 0, i32 2, !dbg !2054
  %24 = load i32, ptr %23, align 4, !dbg !2054
  %25 = load ptr, ptr %2, align 8, !dbg !2055
  %26 = getelementptr inbounds nuw %struct.vms_matrix, ptr %25, i32 0, i32 2, !dbg !2056
  %27 = getelementptr inbounds nuw %struct.vms_vector, ptr %26, i32 0, i32 1, !dbg !2057
  %28 = load i32, ptr %27, align 4, !dbg !2057
  %29 = call noundef i32 @_Z6fixmulii(i32 noundef %24, i32 noundef %28), !dbg !2058
  %30 = call noundef i32 @_Z6fixmulii(i32 noundef %20, i32 noundef %29), !dbg !2059
  %31 = sub nsw i32 %16, %30, !dbg !2060
  %32 = load ptr, ptr %2, align 8, !dbg !2061
  %33 = getelementptr inbounds nuw %struct.vms_matrix, ptr %32, i32 0, i32 0, !dbg !2062
  %34 = getelementptr inbounds nuw %struct.vms_vector, ptr %33, i32 0, i32 1, !dbg !2063
  %35 = load i32, ptr %34, align 4, !dbg !2063
  %36 = load ptr, ptr %2, align 8, !dbg !2064
  %37 = getelementptr inbounds nuw %struct.vms_matrix, ptr %36, i32 0, i32 1, !dbg !2065
  %38 = getelementptr inbounds nuw %struct.vms_vector, ptr %37, i32 0, i32 0, !dbg !2066
  %39 = load i32, ptr %38, align 4, !dbg !2066
  %40 = load ptr, ptr %2, align 8, !dbg !2067
  %41 = getelementptr inbounds nuw %struct.vms_matrix, ptr %40, i32 0, i32 2, !dbg !2068
  %42 = getelementptr inbounds nuw %struct.vms_vector, ptr %41, i32 0, i32 2, !dbg !2069
  %43 = load i32, ptr %42, align 4, !dbg !2069
  %44 = call noundef i32 @_Z6fixmulii(i32 noundef %39, i32 noundef %43), !dbg !2070
  %45 = call noundef i32 @_Z6fixmulii(i32 noundef %35, i32 noundef %44), !dbg !2071
  %46 = sub nsw i32 %31, %45, !dbg !2072
  %47 = load ptr, ptr %2, align 8, !dbg !2073
  %48 = getelementptr inbounds nuw %struct.vms_matrix, ptr %47, i32 0, i32 0, !dbg !2074
  %49 = getelementptr inbounds nuw %struct.vms_vector, ptr %48, i32 0, i32 1, !dbg !2075
  %50 = load i32, ptr %49, align 4, !dbg !2075
  %51 = load ptr, ptr %2, align 8, !dbg !2076
  %52 = getelementptr inbounds nuw %struct.vms_matrix, ptr %51, i32 0, i32 1, !dbg !2077
  %53 = getelementptr inbounds nuw %struct.vms_vector, ptr %52, i32 0, i32 2, !dbg !2078
  %54 = load i32, ptr %53, align 4, !dbg !2078
  %55 = load ptr, ptr %2, align 8, !dbg !2079
  %56 = getelementptr inbounds nuw %struct.vms_matrix, ptr %55, i32 0, i32 2, !dbg !2080
  %57 = getelementptr inbounds nuw %struct.vms_vector, ptr %56, i32 0, i32 0, !dbg !2081
  %58 = load i32, ptr %57, align 4, !dbg !2081
  %59 = call noundef i32 @_Z6fixmulii(i32 noundef %54, i32 noundef %58), !dbg !2082
  %60 = call noundef i32 @_Z6fixmulii(i32 noundef %50, i32 noundef %59), !dbg !2083
  %61 = add nsw i32 %46, %60, !dbg !2084
  %62 = load ptr, ptr %2, align 8, !dbg !2085
  %63 = getelementptr inbounds nuw %struct.vms_matrix, ptr %62, i32 0, i32 0, !dbg !2086
  %64 = getelementptr inbounds nuw %struct.vms_vector, ptr %63, i32 0, i32 2, !dbg !2087
  %65 = load i32, ptr %64, align 4, !dbg !2087
  %66 = load ptr, ptr %2, align 8, !dbg !2088
  %67 = getelementptr inbounds nuw %struct.vms_matrix, ptr %66, i32 0, i32 1, !dbg !2089
  %68 = getelementptr inbounds nuw %struct.vms_vector, ptr %67, i32 0, i32 0, !dbg !2090
  %69 = load i32, ptr %68, align 4, !dbg !2090
  %70 = load ptr, ptr %2, align 8, !dbg !2091
  %71 = getelementptr inbounds nuw %struct.vms_matrix, ptr %70, i32 0, i32 2, !dbg !2092
  %72 = getelementptr inbounds nuw %struct.vms_vector, ptr %71, i32 0, i32 1, !dbg !2093
  %73 = load i32, ptr %72, align 4, !dbg !2093
  %74 = call noundef i32 @_Z6fixmulii(i32 noundef %69, i32 noundef %73), !dbg !2094
  %75 = call noundef i32 @_Z6fixmulii(i32 noundef %65, i32 noundef %74), !dbg !2095
  %76 = add nsw i32 %61, %75, !dbg !2096
  %77 = load ptr, ptr %2, align 8, !dbg !2097
  %78 = getelementptr inbounds nuw %struct.vms_matrix, ptr %77, i32 0, i32 0, !dbg !2098
  %79 = getelementptr inbounds nuw %struct.vms_vector, ptr %78, i32 0, i32 2, !dbg !2099
  %80 = load i32, ptr %79, align 4, !dbg !2099
  %81 = load ptr, ptr %2, align 8, !dbg !2100
  %82 = getelementptr inbounds nuw %struct.vms_matrix, ptr %81, i32 0, i32 1, !dbg !2101
  %83 = getelementptr inbounds nuw %struct.vms_vector, ptr %82, i32 0, i32 1, !dbg !2102
  %84 = load i32, ptr %83, align 4, !dbg !2102
  %85 = load ptr, ptr %2, align 8, !dbg !2103
  %86 = getelementptr inbounds nuw %struct.vms_matrix, ptr %85, i32 0, i32 2, !dbg !2104
  %87 = getelementptr inbounds nuw %struct.vms_vector, ptr %86, i32 0, i32 0, !dbg !2105
  %88 = load i32, ptr %87, align 4, !dbg !2105
  %89 = call noundef i32 @_Z6fixmulii(i32 noundef %84, i32 noundef %88), !dbg !2106
  %90 = call noundef i32 @_Z6fixmulii(i32 noundef %80, i32 noundef %89), !dbg !2107
  %91 = sub nsw i32 %76, %90, !dbg !2108
  ret i32 %91, !dbg !2109
}

; Function Attrs: mustprogress noinline ssp uwtable(sync)
define noundef i32 @_Z18check_line_to_linePiS_P10vms_vectorS1_S1_S1_(ptr noundef %0, ptr noundef %1, ptr noundef %2, ptr noundef %3, ptr noundef %4, ptr noundef %5) #2 !dbg !2110 {
  %7 = alloca i32, align 4
  %8 = alloca ptr, align 8
  %9 = alloca ptr, align 8
  %10 = alloca ptr, align 8
  %11 = alloca ptr, align 8
  %12 = alloca ptr, align 8
  %13 = alloca ptr, align 8
  %14 = alloca %struct.vms_matrix, align 4
  %15 = alloca i32, align 4
  %16 = alloca i32, align 4
  store ptr %0, ptr %8, align 8
    #dbg_declare(ptr %8, !2114, !DIExpression(), !2115)
  store ptr %1, ptr %9, align 8
    #dbg_declare(ptr %9, !2116, !DIExpression(), !2117)
  store ptr %2, ptr %10, align 8
    #dbg_declare(ptr %10, !2118, !DIExpression(), !2119)
  store ptr %3, ptr %11, align 8
    #dbg_declare(ptr %11, !2120, !DIExpression(), !2121)
  store ptr %4, ptr %12, align 8
    #dbg_declare(ptr %12, !2122, !DIExpression(), !2123)
  store ptr %5, ptr %13, align 8
    #dbg_declare(ptr %13, !2124, !DIExpression(), !2125)
    #dbg_declare(ptr %14, !2126, !DIExpression(), !2127)
    #dbg_declare(ptr %15, !2128, !DIExpression(), !2129)
    #dbg_declare(ptr %16, !2130, !DIExpression(), !2131)
  %17 = getelementptr inbounds nuw %struct.vms_matrix, ptr %14, i32 0, i32 0, !dbg !2132
  %18 = load ptr, ptr %12, align 8, !dbg !2133
  %19 = load ptr, ptr %10, align 8, !dbg !2134
  %20 = call noundef ptr @_Z10vm_vec_subP10vms_vectorS0_S0_(ptr noundef %17, ptr noundef %18, ptr noundef %19), !dbg !2135
  %21 = getelementptr inbounds nuw %struct.vms_matrix, ptr %14, i32 0, i32 2, !dbg !2136
  %22 = load ptr, ptr %11, align 8, !dbg !2136
  %23 = load ptr, ptr %13, align 8, !dbg !2136
  %24 = call noundef ptr @_Z16vm_vec_crossprodP10vms_vectorS0_S0_(ptr noundef %21, ptr noundef %22, ptr noundef %23), !dbg !2136
  %25 = getelementptr inbounds nuw %struct.vms_matrix, ptr %14, i32 0, i32 2, !dbg !2137
  %26 = getelementptr inbounds nuw %struct.vms_matrix, ptr %14, i32 0, i32 2, !dbg !2137
  %27 = call noundef i32 @_Z14vm_vec_dotprodP10vms_vectorS0_(ptr noundef %25, ptr noundef %26), !dbg !2137
  store i32 %27, ptr %16, align 4, !dbg !2138
  %28 = load i32, ptr %16, align 4, !dbg !2139
  %29 = icmp eq i32 %28, 0, !dbg !2141
  br i1 %29, label %30, label %31, !dbg !2141

30:                                               ; preds = %6
  store i32 0, ptr %7, align 4, !dbg !2142
  br label %60, !dbg !2142

31:                                               ; preds = %6
  %32 = load ptr, ptr %13, align 8, !dbg !2143
  %33 = getelementptr inbounds nuw %struct.vms_matrix, ptr %14, i32 0, i32 1, !dbg !2144
  call void @llvm.memcpy.p0.p0.i64(ptr align 4 %33, ptr align 4 %32, i64 12, i1 false), !dbg !2145
  %34 = call noundef i32 @_Z14calc_det_valueP10vms_matrix(ptr noundef %14), !dbg !2146
  store i32 %34, ptr %15, align 4, !dbg !2147
  %35 = load i32, ptr %15, align 4, !dbg !2148
  %36 = load i32, ptr %16, align 4, !dbg !2150
  %37 = call noundef i32 @_Z11oflow_checkii(i32 noundef %35, i32 noundef %36), !dbg !2151
  %38 = icmp ne i32 %37, 0, !dbg !2151
  br i1 %38, label %39, label %40, !dbg !2151

39:                                               ; preds = %31
  store i32 0, ptr %7, align 4, !dbg !2152
  br label %60, !dbg !2152

40:                                               ; preds = %31
  %41 = load i32, ptr %15, align 4, !dbg !2153
  %42 = load i32, ptr %16, align 4, !dbg !2154
  %43 = call noundef i32 @_Z6fixdivii(i32 noundef %41, i32 noundef %42), !dbg !2155
  %44 = load ptr, ptr %8, align 8, !dbg !2156
  store i32 %43, ptr %44, align 4, !dbg !2157
  br label %45

45:                                               ; preds = %40
  %46 = load ptr, ptr %11, align 8, !dbg !2158
  %47 = getelementptr inbounds nuw %struct.vms_matrix, ptr %14, i32 0, i32 1, !dbg !2159
  call void @llvm.memcpy.p0.p0.i64(ptr align 4 %47, ptr align 4 %46, i64 12, i1 false), !dbg !2160
  %48 = call noundef i32 @_Z14calc_det_valueP10vms_matrix(ptr noundef %14), !dbg !2161
  store i32 %48, ptr %15, align 4, !dbg !2162
  %49 = load i32, ptr %15, align 4, !dbg !2163
  %50 = load i32, ptr %16, align 4, !dbg !2165
  %51 = call noundef i32 @_Z11oflow_checkii(i32 noundef %49, i32 noundef %50), !dbg !2166
  %52 = icmp ne i32 %51, 0, !dbg !2166
  br i1 %52, label %53, label %54, !dbg !2166

53:                                               ; preds = %45
  store i32 0, ptr %7, align 4, !dbg !2167
  br label %60, !dbg !2167

54:                                               ; preds = %45
  %55 = load i32, ptr %15, align 4, !dbg !2168
  %56 = load i32, ptr %16, align 4, !dbg !2169
  %57 = call noundef i32 @_Z6fixdivii(i32 noundef %55, i32 noundef %56), !dbg !2170
  %58 = load ptr, ptr %9, align 8, !dbg !2171
  store i32 %57, ptr %58, align 4, !dbg !2172
  br label %59

59:                                               ; preds = %54
  store i32 1, ptr %7, align 4, !dbg !2173
  br label %60, !dbg !2173

60:                                               ; preds = %59, %53, %39, %30
  %61 = load i32, ptr %7, align 4, !dbg !2174
  ret i32 %61, !dbg !2174
}

declare noundef ptr @_Z16vm_vec_crossprodP10vms_vectorS0_S0_(ptr noundef, ptr noundef, ptr noundef) #3

; Function Attrs: mustprogress noinline ssp uwtable(sync)
define noundef i32 @_Z26special_check_line_to_faceP10vms_vectorS0_S0_P7segmentiiii(ptr noundef %0, ptr noundef %1, ptr noundef %2, ptr noundef %3, i32 noundef %4, i32 noundef %5, i32 noundef %6, i32 noundef %7) #2 !dbg !2175 {
  %9 = alloca i32, align 4
  %10 = alloca ptr, align 8
  %11 = alloca ptr, align 8
  %12 = alloca ptr, align 8
  %13 = alloca ptr, align 8
  %14 = alloca i32, align 4
  %15 = alloca i32, align 4
  %16 = alloca i32, align 4
  %17 = alloca i32, align 4
  %18 = alloca %struct.vms_vector, align 4
  %19 = alloca i32, align 4
  %20 = alloca i32, align 4
  %21 = alloca i32, align 4
  %22 = alloca i32, align 4
  %23 = alloca i32, align 4
  %24 = alloca i32, align 4
  %25 = alloca i32, align 4
  %26 = alloca [6 x i32], align 4
  %27 = alloca i32, align 4
  %28 = alloca i32, align 4
  %29 = alloca i32, align 4
  %30 = alloca ptr, align 8
  %31 = alloca ptr, align 8
  %32 = alloca %struct.vms_vector, align 4
  %33 = alloca ptr, align 8
  %34 = alloca %struct.vms_vector, align 4
  %35 = alloca %struct.vms_vector, align 4
  store ptr %0, ptr %10, align 8
    #dbg_declare(ptr %10, !2176, !DIExpression(), !2177)
  store ptr %1, ptr %11, align 8
    #dbg_declare(ptr %11, !2178, !DIExpression(), !2179)
  store ptr %2, ptr %12, align 8
    #dbg_declare(ptr %12, !2180, !DIExpression(), !2181)
  store ptr %3, ptr %13, align 8
    #dbg_declare(ptr %13, !2182, !DIExpression(), !2183)
  store i32 %4, ptr %14, align 4
    #dbg_declare(ptr %14, !2184, !DIExpression(), !2185)
  store i32 %5, ptr %15, align 4
    #dbg_declare(ptr %15, !2186, !DIExpression(), !2187)
  store i32 %6, ptr %16, align 4
    #dbg_declare(ptr %16, !2188, !DIExpression(), !2189)
  store i32 %7, ptr %17, align 4
    #dbg_declare(ptr %17, !2190, !DIExpression(), !2191)
  %36 = load i32, ptr @disable_new_fvi_stuff, align 4, !dbg !2192
  %37 = icmp ne i32 %36, 0, !dbg !2192
  br i1 %37, label %38, label %48, !dbg !2192

38:                                               ; preds = %8
  %39 = load ptr, ptr %10, align 8, !dbg !2194
  %40 = load ptr, ptr %11, align 8, !dbg !2195
  %41 = load ptr, ptr %12, align 8, !dbg !2196
  %42 = load ptr, ptr %13, align 8, !dbg !2197
  %43 = load i32, ptr %14, align 4, !dbg !2198
  %44 = load i32, ptr %15, align 4, !dbg !2199
  %45 = load i32, ptr %16, align 4, !dbg !2200
  %46 = load i32, ptr %17, align 4, !dbg !2201
  %47 = call noundef i32 @_Z18check_line_to_faceP10vms_vectorS0_S0_P7segmentiiii(ptr noundef %39, ptr noundef %40, ptr noundef %41, ptr noundef %42, i32 noundef %43, i32 noundef %44, i32 noundef %45, i32 noundef %46), !dbg !2202
  store i32 %47, ptr %9, align 4, !dbg !2203
  br label %181, !dbg !2203

48:                                               ; preds = %8
  %49 = load ptr, ptr %13, align 8, !dbg !2204
  %50 = ptrtoint ptr %49 to i64, !dbg !2206
  %51 = sub i64 %50, ptrtoint (ptr @Segments to i64), !dbg !2206
  %52 = sdiv exact i64 %51, 512, !dbg !2206
  %53 = icmp eq i64 %52, -1, !dbg !2207
  br i1 %53, label %54, label %55, !dbg !2207

54:                                               ; preds = %48
  call void (ptr, ...) @_Z5ErrorPKcz(ptr noundef @.str.3), !dbg !2208
  br label %55, !dbg !2208

55:                                               ; preds = %54, %48
    #dbg_declare(ptr %18, !2209, !DIExpression(), !2211)
    #dbg_declare(ptr %19, !2212, !DIExpression(), !2213)
    #dbg_declare(ptr %20, !2214, !DIExpression(), !2215)
    #dbg_declare(ptr %21, !2216, !DIExpression(), !2217)
    #dbg_declare(ptr %22, !2218, !DIExpression(), !2219)
    #dbg_declare(ptr %23, !2220, !DIExpression(), !2221)
    #dbg_declare(ptr %24, !2222, !DIExpression(), !2223)
    #dbg_declare(ptr %25, !2224, !DIExpression(), !2225)
    #dbg_declare(ptr %26, !2226, !DIExpression(), !2227)
    #dbg_declare(ptr %27, !2228, !DIExpression(), !2229)
    #dbg_declare(ptr %28, !2230, !DIExpression(), !2231)
    #dbg_declare(ptr %29, !2232, !DIExpression(), !2233)
    #dbg_declare(ptr %30, !2234, !DIExpression(), !2235)
    #dbg_declare(ptr %31, !2236, !DIExpression(), !2237)
    #dbg_declare(ptr %32, !2238, !DIExpression(), !2239)
    #dbg_declare(ptr %33, !2240, !DIExpression(), !2241)
  %56 = load ptr, ptr %13, align 8, !dbg !2242
  %57 = getelementptr inbounds nuw %struct.segment, ptr %56, i32 0, i32 0, !dbg !2243
  %58 = load i32, ptr %14, align 4, !dbg !2244
  %59 = sext i32 %58 to i64, !dbg !2242
  %60 = getelementptr inbounds [6 x %struct.side], ptr %57, i64 0, i64 %59, !dbg !2242
  store ptr %60, ptr %33, align 8, !dbg !2241
    #dbg_declare(ptr %34, !2245, !DIExpression(), !2246)
    #dbg_declare(ptr %35, !2247, !DIExpression(), !2248)
  %61 = getelementptr inbounds [6 x i32], ptr %26, i64 0, i64 0, !dbg !2249
  %62 = load ptr, ptr %13, align 8, !dbg !2250
  %63 = ptrtoint ptr %62 to i64, !dbg !2251
  %64 = sub i64 %63, ptrtoint (ptr @Segments to i64), !dbg !2251
  %65 = sdiv exact i64 %64, 512, !dbg !2251
  %66 = trunc i64 %65 to i32, !dbg !2250
  %67 = load i32, ptr %14, align 4, !dbg !2252
  call void @_Z23create_abs_vertex_listsPiS_ii(ptr noundef %27, ptr noundef %61, i32 noundef %66, i32 noundef %67), !dbg !2253
  %68 = load ptr, ptr %12, align 8, !dbg !2254
  %69 = load ptr, ptr %11, align 8, !dbg !2255
  %70 = call noundef ptr @_Z10vm_vec_subP10vms_vectorS0_S0_(ptr noundef %18, ptr noundef %68, ptr noundef %69), !dbg !2256
  %71 = load ptr, ptr %11, align 8, !dbg !2257
  %72 = load ptr, ptr %33, align 8, !dbg !2258
  %73 = load i32, ptr %15, align 4, !dbg !2259
  %74 = load i32, ptr %16, align 4, !dbg !2260
  %75 = getelementptr inbounds [6 x i32], ptr %26, i64 0, i64 0, !dbg !2261
  %76 = call noundef i32 @_Z19check_point_to_faceP10vms_vectorP4sideiiPi(ptr noundef %71, ptr noundef %72, i32 noundef %73, i32 noundef %74, ptr noundef %75), !dbg !2262
  store i32 %76, ptr %29, align 4, !dbg !2263
  %77 = load i32, ptr %29, align 4, !dbg !2264
  %78 = icmp eq i32 %77, 0, !dbg !2266
  br i1 %78, label %79, label %89, !dbg !2266

79:                                               ; preds = %55
  %80 = load ptr, ptr %10, align 8, !dbg !2267
  %81 = load ptr, ptr %11, align 8, !dbg !2268
  %82 = load ptr, ptr %12, align 8, !dbg !2269
  %83 = load ptr, ptr %13, align 8, !dbg !2270
  %84 = load i32, ptr %14, align 4, !dbg !2271
  %85 = load i32, ptr %15, align 4, !dbg !2272
  %86 = load i32, ptr %16, align 4, !dbg !2273
  %87 = load i32, ptr %17, align 4, !dbg !2274
  %88 = call noundef i32 @_Z18check_line_to_faceP10vms_vectorS0_S0_P7segmentiiii(ptr noundef %80, ptr noundef %81, ptr noundef %82, ptr noundef %83, i32 noundef %84, i32 noundef %85, i32 noundef %86, i32 noundef %87), !dbg !2275
  store i32 %88, ptr %9, align 4, !dbg !2276
  br label %181, !dbg !2276

89:                                               ; preds = %55
  store i32 0, ptr %28, align 4, !dbg !2277
  br label %90, !dbg !2279

90:                                               ; preds = %96, %89
  %91 = load i32, ptr %29, align 4, !dbg !2280
  %92 = and i32 %91, 1, !dbg !2282
  %93 = icmp ne i32 %92, 0, !dbg !2283
  %94 = xor i1 %93, true, !dbg !2284
  br i1 %94, label %95, label %101, !dbg !2285

95:                                               ; preds = %90
  br label %96, !dbg !2285

96:                                               ; preds = %95
  %97 = load i32, ptr %29, align 4, !dbg !2286
  %98 = lshr i32 %97, 1, !dbg !2286
  store i32 %98, ptr %29, align 4, !dbg !2286
  %99 = load i32, ptr %28, align 4, !dbg !2287
  %100 = add nsw i32 %99, 1, !dbg !2287
  store i32 %100, ptr %28, align 4, !dbg !2287
  br label %90, !dbg !2288, !llvm.loop !2289

101:                                              ; preds = %90
  %102 = load i32, ptr %15, align 4, !dbg !2291
  %103 = mul nsw i32 %102, 3, !dbg !2292
  %104 = load i32, ptr %28, align 4, !dbg !2293
  %105 = add nsw i32 %103, %104, !dbg !2294
  %106 = sext i32 %105 to i64, !dbg !2295
  %107 = getelementptr inbounds [6 x i32], ptr %26, i64 0, i64 %106, !dbg !2295
  %108 = load i32, ptr %107, align 4, !dbg !2295
  %109 = sext i32 %108 to i64, !dbg !2296
  %110 = getelementptr inbounds [0 x %struct.vms_vector], ptr @Vertices, i64 0, i64 %109, !dbg !2296
  store ptr %110, ptr %30, align 8, !dbg !2297
  %111 = load i32, ptr %15, align 4, !dbg !2298
  %112 = mul nsw i32 %111, 3, !dbg !2299
  %113 = load i32, ptr %28, align 4, !dbg !2300
  %114 = add nsw i32 %113, 1, !dbg !2301
  %115 = load i32, ptr %16, align 4, !dbg !2302
  %116 = srem i32 %114, %115, !dbg !2303
  %117 = add nsw i32 %112, %116, !dbg !2304
  %118 = sext i32 %117 to i64, !dbg !2305
  %119 = getelementptr inbounds [6 x i32], ptr %26, i64 0, i64 %118, !dbg !2305
  %120 = load i32, ptr %119, align 4, !dbg !2305
  %121 = sext i32 %120 to i64, !dbg !2306
  %122 = getelementptr inbounds [0 x %struct.vms_vector], ptr @Vertices, i64 0, i64 %121, !dbg !2306
  store ptr %122, ptr %31, align 8, !dbg !2307
  %123 = load ptr, ptr %31, align 8, !dbg !2308
  %124 = load ptr, ptr %30, align 8, !dbg !2309
  %125 = call noundef ptr @_Z10vm_vec_subP10vms_vectorS0_S0_(ptr noundef %32, ptr noundef %123, ptr noundef %124), !dbg !2310
  %126 = call noundef i32 @_Z16vm_vec_normalizeP10vms_vector(ptr noundef %32), !dbg !2311
  store i32 %126, ptr %24, align 4, !dbg !2312
  %127 = call noundef i32 @_Z16vm_vec_normalizeP10vms_vector(ptr noundef %18), !dbg !2313
  store i32 %127, ptr %25, align 4, !dbg !2314
  %128 = load ptr, ptr %30, align 8, !dbg !2315
  %129 = load ptr, ptr %11, align 8, !dbg !2316
  %130 = call noundef i32 @_Z18check_line_to_linePiS_P10vms_vectorS1_S1_S1_(ptr noundef %19, ptr noundef %20, ptr noundef %128, ptr noundef %32, ptr noundef %129, ptr noundef %18), !dbg !2317
  %131 = load i32, ptr %20, align 4, !dbg !2318
  %132 = icmp slt i32 %131, 0, !dbg !2320
  br i1 %132, label %139, label %133, !dbg !2321

133:                                              ; preds = %101
  %134 = load i32, ptr %20, align 4, !dbg !2322
  %135 = load i32, ptr %25, align 4, !dbg !2323
  %136 = load i32, ptr %17, align 4, !dbg !2324
  %137 = add nsw i32 %135, %136, !dbg !2325
  %138 = icmp sgt i32 %134, %137, !dbg !2326
  br i1 %138, label %139, label %140, !dbg !2321

139:                                              ; preds = %133, %101
  store i32 0, ptr %9, align 4, !dbg !2327
  br label %181, !dbg !2327

140:                                              ; preds = %133
  %141 = load i32, ptr %20, align 4, !dbg !2328
  %142 = load i32, ptr %25, align 4, !dbg !2330
  %143 = icmp sgt i32 %141, %142, !dbg !2331
  br i1 %143, label %144, label %146, !dbg !2331

144:                                              ; preds = %140
  %145 = load i32, ptr %25, align 4, !dbg !2332
  store i32 %145, ptr %22, align 4, !dbg !2333
  br label %148, !dbg !2334

146:                                              ; preds = %140
  %147 = load i32, ptr %20, align 4, !dbg !2335
  store i32 %147, ptr %22, align 4, !dbg !2336
  br label %148

148:                                              ; preds = %146, %144
  %149 = load i32, ptr %19, align 4, !dbg !2337
  %150 = icmp slt i32 %149, 0, !dbg !2339
  br i1 %150, label %151, label %152, !dbg !2339

151:                                              ; preds = %148
  store i32 0, ptr %21, align 4, !dbg !2340
  br label %154, !dbg !2341

152:                                              ; preds = %148
  %153 = load i32, ptr %19, align 4, !dbg !2342
  store i32 %153, ptr %21, align 4, !dbg !2343
  br label %154

154:                                              ; preds = %152, %151
  %155 = load i32, ptr %21, align 4, !dbg !2344
  %156 = load i32, ptr %24, align 4, !dbg !2346
  %157 = icmp sgt i32 %155, %156, !dbg !2347
  br i1 %157, label %158, label %160, !dbg !2347

158:                                              ; preds = %154
  %159 = load i32, ptr %24, align 4, !dbg !2348
  store i32 %159, ptr %21, align 4, !dbg !2349
  br label %160, !dbg !2350

160:                                              ; preds = %158, %154
  %161 = load ptr, ptr %30, align 8, !dbg !2351
  %162 = load i32, ptr %21, align 4, !dbg !2352
  %163 = call noundef ptr @_Z16vm_vec_scale_addP10vms_vectorS0_S0_i(ptr noundef %34, ptr noundef %161, ptr noundef %32, i32 noundef %162), !dbg !2353
  %164 = load ptr, ptr %11, align 8, !dbg !2354
  %165 = load i32, ptr %22, align 4, !dbg !2355
  %166 = call noundef ptr @_Z16vm_vec_scale_addP10vms_vectorS0_S0_i(ptr noundef %35, ptr noundef %164, ptr noundef %18, i32 noundef %165), !dbg !2356
  %167 = call noundef i32 @_Z11vm_vec_distP10vms_vectorS0_(ptr noundef %34, ptr noundef %35), !dbg !2357
  store i32 %167, ptr %23, align 4, !dbg !2358
  %168 = load i32, ptr %23, align 4, !dbg !2359
  %169 = load i32, ptr %17, align 4, !dbg !2361
  %170 = mul nsw i32 %169, 15, !dbg !2362
  %171 = sdiv i32 %170, 20, !dbg !2363
  %172 = icmp slt i32 %168, %171, !dbg !2364
  br i1 %172, label %173, label %180, !dbg !2364

173:                                              ; preds = %160
  %174 = load ptr, ptr %10, align 8, !dbg !2365
  %175 = load ptr, ptr %11, align 8, !dbg !2367
  %176 = load i32, ptr %20, align 4, !dbg !2368
  %177 = load i32, ptr %17, align 4, !dbg !2369
  %178 = sub nsw i32 %176, %177, !dbg !2370
  %179 = call noundef ptr @_Z16vm_vec_scale_addP10vms_vectorS0_S0_i(ptr noundef %174, ptr noundef %175, ptr noundef %18, i32 noundef %178), !dbg !2371
  store i32 2, ptr %9, align 4, !dbg !2372
  br label %181, !dbg !2372

180:                                              ; preds = %160
  store i32 0, ptr %9, align 4, !dbg !2373
  br label %181, !dbg !2373

181:                                              ; preds = %180, %173, %139, %79, %38
  %182 = load i32, ptr %9, align 4, !dbg !2374
  ret i32 %182, !dbg !2374
}

declare noundef i32 @_Z16vm_vec_normalizeP10vms_vector(ptr noundef) #3

; Function Attrs: mustprogress noinline ssp uwtable(sync)
define noundef i32 @_Z24check_vector_to_sphere_1P10vms_vectorS0_S0_S0_i(ptr noundef %0, ptr noundef %1, ptr noundef %2, ptr noundef %3, i32 noundef %4) #2 !dbg !2375 {
  %6 = alloca i32, align 4
  %7 = alloca ptr, align 8
  %8 = alloca ptr, align 8
  %9 = alloca ptr, align 8
  %10 = alloca ptr, align 8
  %11 = alloca i32, align 4
  %12 = alloca %struct.vms_vector, align 4
  %13 = alloca %struct.vms_vector, align 4
  %14 = alloca %struct.vms_vector, align 4
  %15 = alloca %struct.vms_vector, align 4
  %16 = alloca i32, align 4
  %17 = alloca i32, align 4
  %18 = alloca i32, align 4
  %19 = alloca i32, align 4
  %20 = alloca i32, align 4
  %21 = alloca i32, align 4
  %22 = alloca i32, align 4
  store ptr %0, ptr %7, align 8
    #dbg_declare(ptr %7, !2378, !DIExpression(), !2379)
  store ptr %1, ptr %8, align 8
    #dbg_declare(ptr %8, !2380, !DIExpression(), !2381)
  store ptr %2, ptr %9, align 8
    #dbg_declare(ptr %9, !2382, !DIExpression(), !2383)
  store ptr %3, ptr %10, align 8
    #dbg_declare(ptr %10, !2384, !DIExpression(), !2385)
  store i32 %4, ptr %11, align 4
    #dbg_declare(ptr %11, !2386, !DIExpression(), !2387)
    #dbg_declare(ptr %12, !2388, !DIExpression(), !2390)
    #dbg_declare(ptr %13, !2391, !DIExpression(), !2392)
    #dbg_declare(ptr %14, !2393, !DIExpression(), !2394)
    #dbg_declare(ptr %15, !2395, !DIExpression(), !2396)
    #dbg_declare(ptr %16, !2397, !DIExpression(), !2398)
    #dbg_declare(ptr %17, !2399, !DIExpression(), !2400)
    #dbg_declare(ptr %18, !2401, !DIExpression(), !2402)
    #dbg_declare(ptr %19, !2403, !DIExpression(), !2404)
  %23 = load ptr, ptr %9, align 8, !dbg !2405
  %24 = load ptr, ptr %8, align 8, !dbg !2406
  %25 = call noundef ptr @_Z10vm_vec_subP10vms_vectorS0_S0_(ptr noundef %12, ptr noundef %23, ptr noundef %24), !dbg !2407
  %26 = load ptr, ptr %10, align 8, !dbg !2408
  %27 = load ptr, ptr %8, align 8, !dbg !2409
  %28 = call noundef ptr @_Z10vm_vec_subP10vms_vectorS0_S0_(ptr noundef %14, ptr noundef %26, ptr noundef %27), !dbg !2410
  %29 = call noundef i32 @_Z21vm_vec_copy_normalizeP10vms_vectorS0_(ptr noundef %13, ptr noundef %12), !dbg !2411
  store i32 %29, ptr %16, align 4, !dbg !2412
  %30 = load i32, ptr %16, align 4, !dbg !2413
  %31 = icmp eq i32 %30, 0, !dbg !2415
  br i1 %31, label %32, label %44, !dbg !2415

32:                                               ; preds = %5
  %33 = call noundef i32 @_Z10vm_vec_magP10vms_vector(ptr noundef %14), !dbg !2416
  store i32 %33, ptr %19, align 4, !dbg !2418
  %34 = load ptr, ptr %8, align 8, !dbg !2419
  %35 = load ptr, ptr %7, align 8, !dbg !2420
  call void @llvm.memcpy.p0.p0.i64(ptr align 4 %35, ptr align 4 %34, i64 12, i1 false), !dbg !2421
  %36 = load i32, ptr %19, align 4, !dbg !2422
  %37 = load i32, ptr %11, align 4, !dbg !2423
  %38 = icmp slt i32 %36, %37, !dbg !2424
  br i1 %38, label %39, label %41, !dbg !2425

39:                                               ; preds = %32
  %40 = load i32, ptr %19, align 4, !dbg !2426
  br label %42, !dbg !2425

41:                                               ; preds = %32
  br label %42, !dbg !2425

42:                                               ; preds = %41, %39
  %43 = phi i32 [ %40, %39 ], [ 0, %41 ], !dbg !2425
  store i32 %43, ptr %6, align 4, !dbg !2427
  br label %95, !dbg !2427

44:                                               ; preds = %5
  %45 = call noundef i32 @_Z14vm_vec_dotprodP10vms_vectorS0_(ptr noundef %13, ptr noundef %14), !dbg !2428
  store i32 %45, ptr %18, align 4, !dbg !2429
  %46 = load i32, ptr %18, align 4, !dbg !2430
  %47 = icmp slt i32 %46, 0, !dbg !2432
  br i1 %47, label %48, label %49, !dbg !2432

48:                                               ; preds = %44
  store i32 0, ptr %6, align 4, !dbg !2433
  br label %95, !dbg !2433

49:                                               ; preds = %44
  %50 = load i32, ptr %18, align 4, !dbg !2434
  %51 = load i32, ptr %16, align 4, !dbg !2436
  %52 = load i32, ptr %11, align 4, !dbg !2437
  %53 = add nsw i32 %51, %52, !dbg !2438
  %54 = icmp sgt i32 %50, %53, !dbg !2439
  br i1 %54, label %55, label %56, !dbg !2439

55:                                               ; preds = %49
  store i32 0, ptr %6, align 4, !dbg !2440
  br label %95, !dbg !2440

56:                                               ; preds = %49
  %57 = load ptr, ptr %8, align 8, !dbg !2441
  %58 = load i32, ptr %18, align 4, !dbg !2442
  %59 = call noundef ptr @_Z16vm_vec_scale_addP10vms_vectorS0_S0_i(ptr noundef %15, ptr noundef %57, ptr noundef %13, i32 noundef %58), !dbg !2443
  %60 = load ptr, ptr %10, align 8, !dbg !2444
  %61 = call noundef i32 @_Z11vm_vec_distP10vms_vectorS0_(ptr noundef %15, ptr noundef %60), !dbg !2445
  store i32 %61, ptr %17, align 4, !dbg !2446
  %62 = load i32, ptr %17, align 4, !dbg !2447
  %63 = load i32, ptr %11, align 4, !dbg !2449
  %64 = icmp slt i32 %62, %63, !dbg !2450
  br i1 %64, label %65, label %94, !dbg !2450

65:                                               ; preds = %56
    #dbg_declare(ptr %20, !2451, !DIExpression(), !2453)
    #dbg_declare(ptr %21, !2454, !DIExpression(), !2455)
    #dbg_declare(ptr %22, !2456, !DIExpression(), !2457)
  %66 = load i32, ptr %17, align 4, !dbg !2458
  %67 = load i32, ptr %17, align 4, !dbg !2459
  %68 = call noundef i32 @_Z6fixmulii(i32 noundef %66, i32 noundef %67), !dbg !2460
  store i32 %68, ptr %20, align 4, !dbg !2461
  %69 = load i32, ptr %11, align 4, !dbg !2462
  %70 = load i32, ptr %11, align 4, !dbg !2463
  %71 = call noundef i32 @_Z6fixmulii(i32 noundef %69, i32 noundef %70), !dbg !2464
  store i32 %71, ptr %21, align 4, !dbg !2465
  %72 = load i32, ptr %21, align 4, !dbg !2466
  %73 = load i32, ptr %20, align 4, !dbg !2467
  %74 = sub nsw i32 %72, %73, !dbg !2468
  %75 = call noundef i32 @_Z8fix_sqrti(i32 noundef %74), !dbg !2469
  store i32 %75, ptr %22, align 4, !dbg !2470
  %76 = load i32, ptr %18, align 4, !dbg !2471
  %77 = load i32, ptr %22, align 4, !dbg !2472
  %78 = sub nsw i32 %76, %77, !dbg !2473
  store i32 %78, ptr %19, align 4, !dbg !2474
  %79 = load i32, ptr %19, align 4, !dbg !2475
  %80 = load i32, ptr %16, align 4, !dbg !2477
  %81 = icmp sgt i32 %79, %80, !dbg !2478
  br i1 %81, label %85, label %82, !dbg !2479

82:                                               ; preds = %65
  %83 = load i32, ptr %19, align 4, !dbg !2480
  %84 = icmp slt i32 %83, 0, !dbg !2481
  br i1 %84, label %85, label %88, !dbg !2479

85:                                               ; preds = %82, %65
  %86 = load ptr, ptr %8, align 8, !dbg !2482
  %87 = load ptr, ptr %7, align 8, !dbg !2484
  call void @llvm.memcpy.p0.p0.i64(ptr align 4 %87, ptr align 4 %86, i64 12, i1 false), !dbg !2485
  store i32 1, ptr %6, align 4, !dbg !2486
  br label %95, !dbg !2486

88:                                               ; preds = %82
  %89 = load ptr, ptr %7, align 8, !dbg !2487
  %90 = load ptr, ptr %8, align 8, !dbg !2488
  %91 = load i32, ptr %19, align 4, !dbg !2489
  %92 = call noundef ptr @_Z16vm_vec_scale_addP10vms_vectorS0_S0_i(ptr noundef %89, ptr noundef %90, ptr noundef %13, i32 noundef %91), !dbg !2490
  %93 = load i32, ptr %19, align 4, !dbg !2491
  store i32 %93, ptr %6, align 4, !dbg !2492
  br label %95, !dbg !2492

94:                                               ; preds = %56
  store i32 0, ptr %6, align 4, !dbg !2493
  br label %95, !dbg !2493

95:                                               ; preds = %94, %88, %85, %55, %48, %42
  %96 = load i32, ptr %6, align 4, !dbg !2494
  ret i32 %96, !dbg !2494
}

declare noundef i32 @_Z21vm_vec_copy_normalizeP10vms_vectorS0_(ptr noundef, ptr noundef) #3

declare noundef i32 @_Z10vm_vec_magP10vms_vector(ptr noundef) #3

declare noundef i32 @_Z8fix_sqrti(i32 noundef) #3

; Function Attrs: mustprogress noinline ssp uwtable(sync)
define noundef i32 @_Z22check_vector_to_objectP10vms_vectorS0_S0_iP6objectS2_(ptr noundef %0, ptr noundef %1, ptr noundef %2, i32 noundef %3, ptr noundef %4, ptr noundef %5) #2 !dbg !2495 {
  %7 = alloca ptr, align 8
  %8 = alloca ptr, align 8
  %9 = alloca ptr, align 8
  %10 = alloca i32, align 4
  %11 = alloca ptr, align 8
  %12 = alloca ptr, align 8
  %13 = alloca i32, align 4
  store ptr %0, ptr %7, align 8
    #dbg_declare(ptr %7, !2624, !DIExpression(), !2625)
  store ptr %1, ptr %8, align 8
    #dbg_declare(ptr %8, !2626, !DIExpression(), !2627)
  store ptr %2, ptr %9, align 8
    #dbg_declare(ptr %9, !2628, !DIExpression(), !2629)
  store i32 %3, ptr %10, align 4
    #dbg_declare(ptr %10, !2630, !DIExpression(), !2631)
  store ptr %4, ptr %11, align 8
    #dbg_declare(ptr %11, !2632, !DIExpression(), !2633)
  store ptr %5, ptr %12, align 8
    #dbg_declare(ptr %12, !2634, !DIExpression(), !2635)
    #dbg_declare(ptr %13, !2636, !DIExpression(), !2638)
  %14 = load ptr, ptr %11, align 8, !dbg !2639
  %15 = getelementptr inbounds nuw %struct.object, ptr %14, i32 0, i32 13, !dbg !2640
  %16 = load i32, ptr %15, align 4, !dbg !2640
  store i32 %16, ptr %13, align 4, !dbg !2638
  %17 = load ptr, ptr %11, align 8, !dbg !2641
  %18 = getelementptr inbounds nuw %struct.object, ptr %17, i32 0, i32 1, !dbg !2643
  %19 = load i8, ptr %18, align 4, !dbg !2643
  %20 = zext i8 %19 to i32, !dbg !2641
  %21 = icmp eq i32 %20, 2, !dbg !2644
  br i1 %21, label %22, label %35, !dbg !2645

22:                                               ; preds = %6
  %23 = load ptr, ptr %11, align 8, !dbg !2646
  %24 = getelementptr inbounds nuw %struct.object, ptr %23, i32 0, i32 2, !dbg !2647
  %25 = load i8, ptr %24, align 1, !dbg !2647
  %26 = zext i8 %25 to i64, !dbg !2648
  %27 = getelementptr inbounds nuw [0 x %struct.robot_info], ptr @Robot_info, i64 0, i64 %26, !dbg !2648
  %28 = getelementptr inbounds nuw %struct.robot_info, ptr %27, i32 0, i32 31, !dbg !2649
  %29 = load i8, ptr %28, align 1, !dbg !2649
  %30 = icmp ne i8 %29, 0, !dbg !2648
  br i1 %30, label %31, label %35, !dbg !2645

31:                                               ; preds = %22
  %32 = load i32, ptr %13, align 4, !dbg !2650
  %33 = mul nsw i32 %32, 3, !dbg !2651
  %34 = sdiv i32 %33, 4, !dbg !2652
  store i32 %34, ptr %13, align 4, !dbg !2653
  br label %35, !dbg !2654

35:                                               ; preds = %31, %22, %6
  %36 = load ptr, ptr %11, align 8, !dbg !2655
  %37 = getelementptr inbounds nuw %struct.object, ptr %36, i32 0, i32 1, !dbg !2657
  %38 = load i8, ptr %37, align 4, !dbg !2657
  %39 = zext i8 %38 to i32, !dbg !2655
  %40 = icmp eq i32 %39, 4, !dbg !2658
  br i1 %40, label %41, label %67, !dbg !2659

41:                                               ; preds = %35
  %42 = load ptr, ptr %12, align 8, !dbg !2660
  %43 = getelementptr inbounds nuw %struct.object, ptr %42, i32 0, i32 1, !dbg !2661
  %44 = load i8, ptr %43, align 4, !dbg !2661
  %45 = zext i8 %44 to i32, !dbg !2660
  %46 = icmp eq i32 %45, 4, !dbg !2662
  br i1 %46, label %64, label %47, !dbg !2663

47:                                               ; preds = %41
  %48 = load i32, ptr @Game_mode, align 4, !dbg !2664
  %49 = and i32 %48, 16, !dbg !2665
  %50 = icmp ne i32 %49, 0, !dbg !2666
  br i1 %50, label %51, label %67, !dbg !2667

51:                                               ; preds = %47
  %52 = load ptr, ptr %12, align 8, !dbg !2668
  %53 = getelementptr inbounds nuw %struct.object, ptr %52, i32 0, i32 1, !dbg !2669
  %54 = load i8, ptr %53, align 4, !dbg !2669
  %55 = zext i8 %54 to i32, !dbg !2668
  %56 = icmp eq i32 %55, 5, !dbg !2670
  br i1 %56, label %57, label %67, !dbg !2671

57:                                               ; preds = %51
  %58 = load ptr, ptr %12, align 8, !dbg !2672
  %59 = getelementptr inbounds nuw %struct.object, ptr %58, i32 0, i32 22, !dbg !2673
  %60 = getelementptr inbounds nuw %struct.laser_info_s, ptr %59, i32 0, i32 0, !dbg !2674
  %61 = load i16, ptr %60, align 4, !dbg !2674
  %62 = sext i16 %61 to i32, !dbg !2672
  %63 = icmp eq i32 %62, 4, !dbg !2675
  br i1 %63, label %64, label %67, !dbg !2659

64:                                               ; preds = %57, %41
  %65 = load i32, ptr %13, align 4, !dbg !2676
  %66 = sdiv i32 %65, 2, !dbg !2677
  store i32 %66, ptr %13, align 4, !dbg !2678
  br label %67, !dbg !2679

67:                                               ; preds = %64, %57, %51, %47, %35
  %68 = load ptr, ptr %7, align 8, !dbg !2680
  %69 = load ptr, ptr %8, align 8, !dbg !2681
  %70 = load ptr, ptr %9, align 8, !dbg !2682
  %71 = load ptr, ptr %11, align 8, !dbg !2683
  %72 = getelementptr inbounds nuw %struct.object, ptr %71, i32 0, i32 11, !dbg !2684
  %73 = load i32, ptr %13, align 4, !dbg !2685
  %74 = load i32, ptr %10, align 4, !dbg !2686
  %75 = add nsw i32 %73, %74, !dbg !2687
  %76 = call noundef i32 @_Z24check_vector_to_sphere_1P10vms_vectorS0_S0_S0_i(ptr noundef %68, ptr noundef %69, ptr noundef %70, ptr noundef %72, i32 noundef %75), !dbg !2688
  ret i32 %76, !dbg !2689
}

; Function Attrs: mustprogress noinline ssp uwtable(sync)
define noundef i32 @_Z24find_vector_intersectionP9fvi_queryP8fvi_info(ptr noundef %0, ptr noundef %1) #2 !dbg !2690 {
  %3 = alloca i32, align 4
  %4 = alloca ptr, align 8
  %5 = alloca ptr, align 8
  %6 = alloca i32, align 4
  %7 = alloca i32, align 4
  %8 = alloca i32, align 4
  %9 = alloca %struct.vms_vector, align 4
  %10 = alloca i32, align 4
  %11 = alloca %struct.segmasks, align 2
  %12 = alloca %struct.segmasks, align 2
  %13 = alloca %struct.segmasks, align 2
  %14 = alloca i32, align 4
  %15 = alloca i32, align 4
  %16 = alloca %struct.vms_vector, align 4
  store ptr %0, ptr %4, align 8
    #dbg_declare(ptr %4, !2719, !DIExpression(), !2720)
  store ptr %1, ptr %5, align 8
    #dbg_declare(ptr %5, !2721, !DIExpression(), !2722)
    #dbg_declare(ptr %6, !2723, !DIExpression(), !2725)
    #dbg_declare(ptr %7, !2726, !DIExpression(), !2727)
    #dbg_declare(ptr %8, !2728, !DIExpression(), !2729)
    #dbg_declare(ptr %9, !2730, !DIExpression(), !2731)
    #dbg_declare(ptr %10, !2732, !DIExpression(), !2733)
  %17 = load ptr, ptr %4, align 8, !dbg !2734
  %18 = getelementptr inbounds nuw %struct.fvi_query, ptr %17, i32 0, i32 5, !dbg !2734
  %19 = load ptr, ptr %18, align 8, !dbg !2734
  %20 = icmp ne ptr %19, inttoptr (i64 -1 to ptr), !dbg !2734
  %21 = zext i1 %20 to i32, !dbg !2734
  call void @_Z7_AssertiPKcS0_i(i32 noundef %21, ptr noundef @.str.4, ptr noundef @.str.1, i32 noundef 861), !dbg !2734
  %22 = load ptr, ptr %4, align 8, !dbg !2735
  %23 = getelementptr inbounds nuw %struct.fvi_query, ptr %22, i32 0, i32 2, !dbg !2735
  %24 = load i32, ptr %23, align 8, !dbg !2735
  %25 = load i32, ptr @Highest_segment_index, align 4, !dbg !2735
  %26 = icmp sle i32 %24, %25, !dbg !2735
  br i1 %26, label %27, label %32, !dbg !2735

27:                                               ; preds = %2
  %28 = load ptr, ptr %4, align 8, !dbg !2735
  %29 = getelementptr inbounds nuw %struct.fvi_query, ptr %28, i32 0, i32 2, !dbg !2735
  %30 = load i32, ptr %29, align 8, !dbg !2735
  %31 = icmp sge i32 %30, 0, !dbg !2735
  br label %32

32:                                               ; preds = %27, %2
  %33 = phi i1 [ false, %2 ], [ %31, %27 ], !dbg !2736
  %34 = zext i1 %33 to i32, !dbg !2735
  call void @_Z7_AssertiPKcS0_i(i32 noundef %34, ptr noundef @.str.5, ptr noundef @.str.1, i32 noundef 862), !dbg !2735
  store i32 -1, ptr @fvi_hit_seg, align 4, !dbg !2737
  store i32 -1, ptr @fvi_hit_side, align 4, !dbg !2738
  store i32 -1, ptr @fvi_hit_object, align 4, !dbg !2739
  %35 = load ptr, ptr %4, align 8, !dbg !2740
  %36 = getelementptr inbounds nuw %struct.fvi_query, ptr %35, i32 0, i32 0, !dbg !2742
  %37 = load ptr, ptr %36, align 8, !dbg !2742
  %38 = load ptr, ptr %4, align 8, !dbg !2743
  %39 = getelementptr inbounds nuw %struct.fvi_query, ptr %38, i32 0, i32 2, !dbg !2744
  %40 = load i32, ptr %39, align 8, !dbg !2744
  %41 = call i32 @_Z13get_seg_masksP10vms_vectorii(ptr noundef %37, i32 noundef %40, i32 noundef 0), !dbg !2745
  store i32 %41, ptr %11, align 2, !dbg !2745
  %42 = getelementptr inbounds nuw %struct.segmasks, ptr %11, i32 0, i32 2, !dbg !2746
  %43 = load i8, ptr %42, align 1, !dbg !2746
  %44 = sext i8 %43 to i32, !dbg !2745
  %45 = icmp eq i32 %44, 0, !dbg !2747
  %46 = xor i1 %45, true, !dbg !2748
  br i1 %46, label %47, label %69, !dbg !2748

47:                                               ; preds = %32
  %48 = load ptr, ptr %5, align 8, !dbg !2749
  %49 = getelementptr inbounds nuw %struct.fvi_info, ptr %48, i32 0, i32 0, !dbg !2751
  store i32 3, ptr %49, align 4, !dbg !2752
  %50 = load ptr, ptr %4, align 8, !dbg !2753
  %51 = getelementptr inbounds nuw %struct.fvi_query, ptr %50, i32 0, i32 0, !dbg !2754
  %52 = load ptr, ptr %51, align 8, !dbg !2754
  %53 = load ptr, ptr %5, align 8, !dbg !2755
  %54 = getelementptr inbounds nuw %struct.fvi_info, ptr %53, i32 0, i32 1, !dbg !2756
  call void @llvm.memcpy.p0.p0.i64(ptr align 4 %54, ptr align 4 %52, i64 12, i1 false), !dbg !2757
  %55 = load ptr, ptr %4, align 8, !dbg !2758
  %56 = getelementptr inbounds nuw %struct.fvi_query, ptr %55, i32 0, i32 2, !dbg !2759
  %57 = load i32, ptr %56, align 8, !dbg !2759
  %58 = load ptr, ptr %5, align 8, !dbg !2760
  %59 = getelementptr inbounds nuw %struct.fvi_info, ptr %58, i32 0, i32 2, !dbg !2761
  store i32 %57, ptr %59, align 4, !dbg !2762
  %60 = load ptr, ptr %5, align 8, !dbg !2763
  %61 = getelementptr inbounds nuw %struct.fvi_info, ptr %60, i32 0, i32 5, !dbg !2764
  store i32 0, ptr %61, align 4, !dbg !2765
  %62 = load ptr, ptr %5, align 8, !dbg !2766
  %63 = getelementptr inbounds nuw %struct.fvi_info, ptr %62, i32 0, i32 3, !dbg !2767
  store i32 0, ptr %63, align 4, !dbg !2768
  %64 = load ptr, ptr %5, align 8, !dbg !2769
  %65 = getelementptr inbounds nuw %struct.fvi_info, ptr %64, i32 0, i32 4, !dbg !2770
  store i32 -1, ptr %65, align 4, !dbg !2771
  %66 = load ptr, ptr %5, align 8, !dbg !2772
  %67 = getelementptr inbounds nuw %struct.fvi_info, ptr %66, i32 0, i32 0, !dbg !2773
  %68 = load i32, ptr %67, align 4, !dbg !2773
  store i32 %68, ptr %3, align 4, !dbg !2774
  br label %281, !dbg !2774

69:                                               ; preds = %32
  %70 = load ptr, ptr %4, align 8, !dbg !2775
  %71 = getelementptr inbounds nuw %struct.fvi_query, ptr %70, i32 0, i32 2, !dbg !2776
  %72 = load i32, ptr %71, align 8, !dbg !2776
  %73 = trunc i32 %72 to i16, !dbg !2775
  store i16 %73, ptr @segs_visited, align 2, !dbg !2777
  store i32 1, ptr @n_segs_visited, align 4, !dbg !2778
  store i32 0, ptr @fvi_nest_count, align 4, !dbg !2779
  store i32 -1, ptr @fvi_hit_seg2, align 4, !dbg !2780
  store i32 -1, ptr %8, align 4, !dbg !2781
  %74 = load ptr, ptr %4, align 8, !dbg !2782
  %75 = getelementptr inbounds nuw %struct.fvi_query, ptr %74, i32 0, i32 0, !dbg !2783
  %76 = load ptr, ptr %75, align 8, !dbg !2783
  %77 = load ptr, ptr %4, align 8, !dbg !2784
  %78 = getelementptr inbounds nuw %struct.fvi_query, ptr %77, i32 0, i32 2, !dbg !2785
  %79 = load i32, ptr %78, align 8, !dbg !2785
  %80 = load ptr, ptr %4, align 8, !dbg !2786
  %81 = getelementptr inbounds nuw %struct.fvi_query, ptr %80, i32 0, i32 1, !dbg !2787
  %82 = load ptr, ptr %81, align 8, !dbg !2787
  %83 = load ptr, ptr %4, align 8, !dbg !2788
  %84 = getelementptr inbounds nuw %struct.fvi_query, ptr %83, i32 0, i32 3, !dbg !2789
  %85 = load i32, ptr %84, align 4, !dbg !2789
  %86 = load ptr, ptr %4, align 8, !dbg !2790
  %87 = getelementptr inbounds nuw %struct.fvi_query, ptr %86, i32 0, i32 4, !dbg !2791
  %88 = load i16, ptr %87, align 8, !dbg !2791
  %89 = load ptr, ptr %4, align 8, !dbg !2792
  %90 = getelementptr inbounds nuw %struct.fvi_query, ptr %89, i32 0, i32 5, !dbg !2793
  %91 = load ptr, ptr %90, align 8, !dbg !2793
  %92 = load ptr, ptr %4, align 8, !dbg !2794
  %93 = getelementptr inbounds nuw %struct.fvi_query, ptr %92, i32 0, i32 6, !dbg !2795
  %94 = load i32, ptr %93, align 8, !dbg !2795
  %95 = load ptr, ptr %5, align 8, !dbg !2796
  %96 = getelementptr inbounds nuw %struct.fvi_info, ptr %95, i32 0, i32 8, !dbg !2797
  %97 = getelementptr inbounds [100 x i32], ptr %96, i64 0, i64 0, !dbg !2796
  %98 = load ptr, ptr %5, align 8, !dbg !2798
  %99 = getelementptr inbounds nuw %struct.fvi_info, ptr %98, i32 0, i32 7, !dbg !2799
  %100 = call noundef i32 @_Z7fvi_subP10vms_vectorPiS0_iS0_isS1_iS1_S1_i(ptr noundef %9, ptr noundef %8, ptr noundef %76, i32 noundef %79, ptr noundef %82, i32 noundef %85, i16 noundef signext %88, ptr noundef %91, i32 noundef %94, ptr noundef %97, ptr noundef %99, i32 noundef -2), !dbg !2800
  store i32 %100, ptr %6, align 4, !dbg !2801
  %101 = load i32, ptr %8, align 4, !dbg !2802
  %102 = icmp ne i32 %101, -1, !dbg !2804
  br i1 %102, label %103, label %110, !dbg !2805

103:                                              ; preds = %69
  %104 = load i32, ptr %8, align 4, !dbg !2806
  %105 = call i32 @_Z13get_seg_masksP10vms_vectorii(ptr noundef %9, i32 noundef %104, i32 noundef 0), !dbg !2807
  store i32 %105, ptr %12, align 2, !dbg !2807
  %106 = getelementptr inbounds nuw %struct.segmasks, ptr %12, i32 0, i32 2, !dbg !2808
  %107 = load i8, ptr %106, align 1, !dbg !2808
  %108 = icmp ne i8 %107, 0, !dbg !2807
  %109 = xor i1 %108, true, !dbg !2809
  br label %110

110:                                              ; preds = %103, %69
  %111 = phi i1 [ false, %69 ], [ %109, %103 ], !dbg !2810
  br i1 %111, label %112, label %114, !dbg !2802

112:                                              ; preds = %110
  %113 = load i32, ptr %8, align 4, !dbg !2811
  store i32 %113, ptr %7, align 4, !dbg !2812
  br label %119, !dbg !2813

114:                                              ; preds = %110
  %115 = load ptr, ptr %4, align 8, !dbg !2814
  %116 = getelementptr inbounds nuw %struct.fvi_query, ptr %115, i32 0, i32 2, !dbg !2815
  %117 = load i32, ptr %116, align 8, !dbg !2815
  %118 = call noundef i32 @_Z14find_point_segP10vms_vectori(ptr noundef %9, i32 noundef %117), !dbg !2816
  store i32 %118, ptr %7, align 4, !dbg !2817
  br label %119

119:                                              ; preds = %114, %112
  %120 = load i32, ptr %6, align 4, !dbg !2818
  %121 = icmp eq i32 %120, 1, !dbg !2820
  br i1 %121, label %122, label %140, !dbg !2821

122:                                              ; preds = %119
  %123 = load i32, ptr %7, align 4, !dbg !2822
  %124 = icmp eq i32 %123, -1, !dbg !2823
  br i1 %124, label %125, label %140, !dbg !2821

125:                                              ; preds = %122
  %126 = load i32, ptr @fvi_hit_seg2, align 4, !dbg !2824
  %127 = icmp ne i32 %126, -1, !dbg !2826
  br i1 %127, label %128, label %135, !dbg !2827

128:                                              ; preds = %125
  %129 = load i32, ptr @fvi_hit_seg2, align 4, !dbg !2828
  %130 = call i32 @_Z13get_seg_masksP10vms_vectorii(ptr noundef %9, i32 noundef %129, i32 noundef 0), !dbg !2829
  store i32 %130, ptr %13, align 2, !dbg !2829
  %131 = getelementptr inbounds nuw %struct.segmasks, ptr %13, i32 0, i32 2, !dbg !2830
  %132 = load i8, ptr %131, align 1, !dbg !2830
  %133 = sext i8 %132 to i32, !dbg !2829
  %134 = icmp eq i32 %133, 0, !dbg !2831
  br label %135

135:                                              ; preds = %128, %125
  %136 = phi i1 [ false, %125 ], [ %134, %128 ], !dbg !2832
  br i1 %136, label %137, label %139, !dbg !2824

137:                                              ; preds = %135
  %138 = load i32, ptr @fvi_hit_seg2, align 4, !dbg !2833
  store i32 %138, ptr %7, align 4, !dbg !2834
  br label %139, !dbg !2835

139:                                              ; preds = %137, %135
  br label %140, !dbg !2836

140:                                              ; preds = %139, %122, %119
  %141 = load i32, ptr %7, align 4, !dbg !2837
  %142 = icmp eq i32 %141, -1, !dbg !2839
  br i1 %142, label %143, label %173, !dbg !2839

143:                                              ; preds = %140
    #dbg_declare(ptr %14, !2840, !DIExpression(), !2842)
    #dbg_declare(ptr %15, !2843, !DIExpression(), !2844)
  store i32 -1, ptr %15, align 4, !dbg !2844
    #dbg_declare(ptr %16, !2845, !DIExpression(), !2846)
  %144 = load ptr, ptr %4, align 8, !dbg !2847
  %145 = getelementptr inbounds nuw %struct.fvi_query, ptr %144, i32 0, i32 0, !dbg !2848
  %146 = load ptr, ptr %145, align 8, !dbg !2848
  %147 = load ptr, ptr %4, align 8, !dbg !2849
  %148 = getelementptr inbounds nuw %struct.fvi_query, ptr %147, i32 0, i32 2, !dbg !2850
  %149 = load i32, ptr %148, align 8, !dbg !2850
  %150 = load ptr, ptr %4, align 8, !dbg !2851
  %151 = getelementptr inbounds nuw %struct.fvi_query, ptr %150, i32 0, i32 1, !dbg !2852
  %152 = load ptr, ptr %151, align 8, !dbg !2852
  %153 = load ptr, ptr %4, align 8, !dbg !2853
  %154 = getelementptr inbounds nuw %struct.fvi_query, ptr %153, i32 0, i32 4, !dbg !2854
  %155 = load i16, ptr %154, align 8, !dbg !2854
  %156 = load ptr, ptr %4, align 8, !dbg !2855
  %157 = getelementptr inbounds nuw %struct.fvi_query, ptr %156, i32 0, i32 5, !dbg !2856
  %158 = load ptr, ptr %157, align 8, !dbg !2856
  %159 = load ptr, ptr %4, align 8, !dbg !2857
  %160 = getelementptr inbounds nuw %struct.fvi_query, ptr %159, i32 0, i32 6, !dbg !2858
  %161 = load i32, ptr %160, align 8, !dbg !2858
  %162 = load ptr, ptr %5, align 8, !dbg !2859
  %163 = getelementptr inbounds nuw %struct.fvi_info, ptr %162, i32 0, i32 8, !dbg !2860
  %164 = getelementptr inbounds [100 x i32], ptr %163, i64 0, i64 0, !dbg !2859
  %165 = load ptr, ptr %5, align 8, !dbg !2861
  %166 = getelementptr inbounds nuw %struct.fvi_info, ptr %165, i32 0, i32 7, !dbg !2862
  %167 = call noundef i32 @_Z7fvi_subP10vms_vectorPiS0_iS0_isS1_iS1_S1_i(ptr noundef %16, ptr noundef %15, ptr noundef %146, i32 noundef %149, ptr noundef %152, i32 noundef 0, i16 noundef signext %155, ptr noundef %158, i32 noundef %161, ptr noundef %164, ptr noundef %166, i32 noundef -2), !dbg !2863
  store i32 %167, ptr %14, align 4, !dbg !2864
  %168 = load i32, ptr %15, align 4, !dbg !2865
  %169 = icmp ne i32 %168, -1, !dbg !2867
  br i1 %169, label %170, label %172, !dbg !2867

170:                                              ; preds = %143
  %171 = load i32, ptr %15, align 4, !dbg !2868
  store i32 %171, ptr %7, align 4, !dbg !2870
  call void @llvm.memcpy.p0.p0.i64(ptr align 4 %9, ptr align 4 %16, i64 12, i1 false), !dbg !2871
  br label %172, !dbg !2872

172:                                              ; preds = %170, %143
  br label %173, !dbg !2873

173:                                              ; preds = %172, %140
  %174 = load i32, ptr %7, align 4, !dbg !2874
  %175 = icmp ne i32 %174, -1, !dbg !2876
  br i1 %175, label %176, label %210, !dbg !2877

176:                                              ; preds = %173
  %177 = load ptr, ptr %4, align 8, !dbg !2878
  %178 = getelementptr inbounds nuw %struct.fvi_query, ptr %177, i32 0, i32 6, !dbg !2879
  %179 = load i32, ptr %178, align 8, !dbg !2879
  %180 = and i32 %179, 8, !dbg !2880
  %181 = icmp ne i32 %180, 0, !dbg !2878
  br i1 %181, label %182, label %210, !dbg !2877

182:                                              ; preds = %176
  %183 = load i32, ptr %7, align 4, !dbg !2881
  %184 = load ptr, ptr %5, align 8, !dbg !2883
  %185 = getelementptr inbounds nuw %struct.fvi_info, ptr %184, i32 0, i32 8, !dbg !2884
  %186 = load ptr, ptr %5, align 8, !dbg !2885
  %187 = getelementptr inbounds nuw %struct.fvi_info, ptr %186, i32 0, i32 7, !dbg !2886
  %188 = load i32, ptr %187, align 4, !dbg !2886
  %189 = sub nsw i32 %188, 1, !dbg !2887
  %190 = sext i32 %189 to i64, !dbg !2883
  %191 = getelementptr inbounds [100 x i32], ptr %185, i64 0, i64 %190, !dbg !2883
  %192 = load i32, ptr %191, align 4, !dbg !2883
  %193 = icmp ne i32 %183, %192, !dbg !2888
  br i1 %193, label %194, label %209, !dbg !2889

194:                                              ; preds = %182
  %195 = load ptr, ptr %5, align 8, !dbg !2890
  %196 = getelementptr inbounds nuw %struct.fvi_info, ptr %195, i32 0, i32 7, !dbg !2891
  %197 = load i32, ptr %196, align 4, !dbg !2891
  %198 = icmp slt i32 %197, 99, !dbg !2892
  br i1 %198, label %199, label %209, !dbg !2889

199:                                              ; preds = %194
  %200 = load i32, ptr %7, align 4, !dbg !2893
  %201 = load ptr, ptr %5, align 8, !dbg !2894
  %202 = getelementptr inbounds nuw %struct.fvi_info, ptr %201, i32 0, i32 8, !dbg !2895
  %203 = load ptr, ptr %5, align 8, !dbg !2896
  %204 = getelementptr inbounds nuw %struct.fvi_info, ptr %203, i32 0, i32 7, !dbg !2897
  %205 = load i32, ptr %204, align 4, !dbg !2898
  %206 = add nsw i32 %205, 1, !dbg !2898
  store i32 %206, ptr %204, align 4, !dbg !2898
  %207 = sext i32 %205 to i64, !dbg !2894
  %208 = getelementptr inbounds [100 x i32], ptr %202, i64 0, i64 %207, !dbg !2894
  store i32 %200, ptr %208, align 4, !dbg !2899
  br label %209, !dbg !2894

209:                                              ; preds = %199, %194, %182
  br label %210, !dbg !2900

210:                                              ; preds = %209, %176, %173
  %211 = load i32, ptr %7, align 4, !dbg !2901
  %212 = icmp ne i32 %211, -1, !dbg !2903
  br i1 %212, label %213, label %251, !dbg !2904

213:                                              ; preds = %210
  %214 = load ptr, ptr %4, align 8, !dbg !2905
  %215 = getelementptr inbounds nuw %struct.fvi_query, ptr %214, i32 0, i32 6, !dbg !2906
  %216 = load i32, ptr %215, align 8, !dbg !2906
  %217 = and i32 %216, 8, !dbg !2907
  %218 = icmp ne i32 %217, 0, !dbg !2905
  br i1 %218, label %219, label %251, !dbg !2904

219:                                              ; preds = %213
  store i32 0, ptr %10, align 4, !dbg !2908
  br label %220, !dbg !2910

220:                                              ; preds = %246, %219
  %221 = load i32, ptr %10, align 4, !dbg !2911
  %222 = load ptr, ptr %5, align 8, !dbg !2913
  %223 = getelementptr inbounds nuw %struct.fvi_info, ptr %222, i32 0, i32 7, !dbg !2914
  %224 = load i32, ptr %223, align 4, !dbg !2914
  %225 = icmp slt i32 %221, %224, !dbg !2915
  br i1 %225, label %226, label %229, !dbg !2916

226:                                              ; preds = %220
  %227 = load i32, ptr %10, align 4, !dbg !2917
  %228 = icmp slt i32 %227, 99, !dbg !2918
  br label %229

229:                                              ; preds = %226, %220
  %230 = phi i1 [ false, %220 ], [ %228, %226 ], !dbg !2919
  br i1 %230, label %231, label %249, !dbg !2920

231:                                              ; preds = %229
  %232 = load ptr, ptr %5, align 8, !dbg !2921
  %233 = getelementptr inbounds nuw %struct.fvi_info, ptr %232, i32 0, i32 8, !dbg !2923
  %234 = load i32, ptr %10, align 4, !dbg !2924
  %235 = sext i32 %234 to i64, !dbg !2921
  %236 = getelementptr inbounds [100 x i32], ptr %233, i64 0, i64 %235, !dbg !2921
  %237 = load i32, ptr %236, align 4, !dbg !2921
  %238 = load i32, ptr %7, align 4, !dbg !2925
  %239 = icmp eq i32 %237, %238, !dbg !2926
  br i1 %239, label %240, label %245, !dbg !2926

240:                                              ; preds = %231
  %241 = load i32, ptr %10, align 4, !dbg !2927
  %242 = add nsw i32 %241, 1, !dbg !2929
  %243 = load ptr, ptr %5, align 8, !dbg !2930
  %244 = getelementptr inbounds nuw %struct.fvi_info, ptr %243, i32 0, i32 7, !dbg !2931
  store i32 %242, ptr %244, align 4, !dbg !2932
  br label %250, !dbg !2933

245:                                              ; preds = %231
  br label %246, !dbg !2925

246:                                              ; preds = %245
  %247 = load i32, ptr %10, align 4, !dbg !2934
  %248 = add nsw i32 %247, 1, !dbg !2934
  store i32 %248, ptr %10, align 4, !dbg !2934
  br label %220, !dbg !2935, !llvm.loop !2936

249:                                              ; preds = %229
  br label %250, !dbg !2937

250:                                              ; preds = %249, %240
  br label %251, !dbg !2937

251:                                              ; preds = %250, %213, %210
  %252 = load i32, ptr %6, align 4, !dbg !2938
  %253 = icmp eq i32 %252, 2, !dbg !2938
  br i1 %253, label %254, label %257, !dbg !2938

254:                                              ; preds = %251
  %255 = load i32, ptr @fvi_hit_object, align 4, !dbg !2938
  %256 = icmp eq i32 %255, -1, !dbg !2938
  br label %257

257:                                              ; preds = %254, %251
  %258 = phi i1 [ false, %251 ], [ %256, %254 ], !dbg !2736
  %259 = xor i1 %258, true, !dbg !2938
  %260 = zext i1 %259 to i32, !dbg !2938
  call void @_Z7_AssertiPKcS0_i(i32 noundef %260, ptr noundef @.str.6, ptr noundef @.str.1, i32 noundef 923), !dbg !2938
  %261 = load i32, ptr %6, align 4, !dbg !2939
  %262 = load ptr, ptr %5, align 8, !dbg !2940
  %263 = getelementptr inbounds nuw %struct.fvi_info, ptr %262, i32 0, i32 0, !dbg !2941
  store i32 %261, ptr %263, align 4, !dbg !2942
  %264 = load ptr, ptr %5, align 8, !dbg !2943
  %265 = getelementptr inbounds nuw %struct.fvi_info, ptr %264, i32 0, i32 1, !dbg !2944
  call void @llvm.memcpy.p0.p0.i64(ptr align 4 %265, ptr align 4 %9, i64 12, i1 false), !dbg !2945
  %266 = load i32, ptr %7, align 4, !dbg !2946
  %267 = load ptr, ptr %5, align 8, !dbg !2947
  %268 = getelementptr inbounds nuw %struct.fvi_info, ptr %267, i32 0, i32 2, !dbg !2948
  store i32 %266, ptr %268, align 4, !dbg !2949
  %269 = load i32, ptr @fvi_hit_side, align 4, !dbg !2950
  %270 = load ptr, ptr %5, align 8, !dbg !2951
  %271 = getelementptr inbounds nuw %struct.fvi_info, ptr %270, i32 0, i32 3, !dbg !2952
  store i32 %269, ptr %271, align 4, !dbg !2953
  %272 = load i32, ptr @fvi_hit_side_seg, align 4, !dbg !2954
  %273 = load ptr, ptr %5, align 8, !dbg !2955
  %274 = getelementptr inbounds nuw %struct.fvi_info, ptr %273, i32 0, i32 4, !dbg !2956
  store i32 %272, ptr %274, align 4, !dbg !2957
  %275 = load i32, ptr @fvi_hit_object, align 4, !dbg !2958
  %276 = load ptr, ptr %5, align 8, !dbg !2959
  %277 = getelementptr inbounds nuw %struct.fvi_info, ptr %276, i32 0, i32 5, !dbg !2960
  store i32 %275, ptr %277, align 4, !dbg !2961
  %278 = load ptr, ptr %5, align 8, !dbg !2962
  %279 = getelementptr inbounds nuw %struct.fvi_info, ptr %278, i32 0, i32 6, !dbg !2963
  call void @llvm.memcpy.p0.p0.i64(ptr align 4 %279, ptr align 4 @wall_norm, i64 12, i1 false), !dbg !2964
  %280 = load i32, ptr %6, align 4, !dbg !2965
  store i32 %280, ptr %3, align 4, !dbg !2966
  br label %281, !dbg !2966

281:                                              ; preds = %257, %47
  %282 = load i32, ptr %3, align 4, !dbg !2967
  ret i32 %282, !dbg !2967
}

declare i32 @_Z13get_seg_masksP10vms_vectorii(ptr noundef, i32 noundef, i32 noundef) #3

; Function Attrs: mustprogress noinline ssp uwtable(sync)
define noundef i32 @_Z7fvi_subP10vms_vectorPiS0_iS0_isS1_iS1_S1_i(ptr noundef %0, ptr noundef %1, ptr noundef %2, i32 noundef %3, ptr noundef %4, i32 noundef %5, i16 noundef signext %6, ptr noundef %7, i32 noundef %8, ptr noundef %9, ptr noundef %10, i32 noundef %11) #2 !dbg !2968 {
  %13 = alloca ptr, align 8
  %14 = alloca ptr, align 8
  %15 = alloca ptr, align 8
  %16 = alloca i32, align 4
  %17 = alloca ptr, align 8
  %18 = alloca i32, align 4
  %19 = alloca i16, align 2
  %20 = alloca ptr, align 8
  %21 = alloca i32, align 4
  %22 = alloca ptr, align 8
  %23 = alloca ptr, align 8
  %24 = alloca i32, align 4
  %25 = alloca ptr, align 8
  %26 = alloca i32, align 4
  %27 = alloca i32, align 4
  %28 = alloca i32, align 4
  %29 = alloca i32, align 4
  %30 = alloca %struct.segmasks, align 2
  %31 = alloca %struct.vms_vector, align 4
  %32 = alloca %struct.vms_vector, align 4
  %33 = alloca i32, align 4
  %34 = alloca i32, align 4
  %35 = alloca i32, align 4
  %36 = alloca i32, align 4
  %37 = alloca i32, align 4
  %38 = alloca i32, align 4
  %39 = alloca [100 x i32], align 4
  %40 = alloca i32, align 4
  %41 = alloca i32, align 4
  %42 = alloca %struct.segmasks, align 2
  %43 = alloca %struct.segmasks, align 2
  %44 = alloca i32, align 4
  %45 = alloca i32, align 4
  %46 = alloca i32, align 4
  %47 = alloca i32, align 4
  %48 = alloca i32, align 4
  %49 = alloca i32, align 4
  %50 = alloca i32, align 4
  %51 = alloca %struct.vms_vector, align 4
  %52 = alloca i32, align 4
  %53 = alloca i32, align 4
  %54 = alloca %struct.vms_vector, align 4
  %55 = alloca i32, align 4
  %56 = alloca i32, align 4
  %57 = alloca [100 x i32], align 4
  %58 = alloca i32, align 4
  %59 = alloca i32, align 4
  %60 = alloca i32, align 4
  %61 = alloca %struct.segmasks, align 2
  %62 = alloca i32, align 4
  store ptr %0, ptr %13, align 8
    #dbg_declare(ptr %13, !2971, !DIExpression(), !2972)
  store ptr %1, ptr %14, align 8
    #dbg_declare(ptr %14, !2973, !DIExpression(), !2974)
  store ptr %2, ptr %15, align 8
    #dbg_declare(ptr %15, !2975, !DIExpression(), !2976)
  store i32 %3, ptr %16, align 4
    #dbg_declare(ptr %16, !2977, !DIExpression(), !2978)
  store ptr %4, ptr %17, align 8
    #dbg_declare(ptr %17, !2979, !DIExpression(), !2980)
  store i32 %5, ptr %18, align 4
    #dbg_declare(ptr %18, !2981, !DIExpression(), !2982)
  store i16 %6, ptr %19, align 2
    #dbg_declare(ptr %19, !2983, !DIExpression(), !2984)
  store ptr %7, ptr %20, align 8
    #dbg_declare(ptr %20, !2985, !DIExpression(), !2986)
  store i32 %8, ptr %21, align 4
    #dbg_declare(ptr %21, !2987, !DIExpression(), !2988)
  store ptr %9, ptr %22, align 8
    #dbg_declare(ptr %22, !2989, !DIExpression(), !2990)
  store ptr %10, ptr %23, align 8
    #dbg_declare(ptr %23, !2991, !DIExpression(), !2992)
  store i32 %11, ptr %24, align 4
    #dbg_declare(ptr %24, !2993, !DIExpression(), !2994)
    #dbg_declare(ptr %25, !2995, !DIExpression(), !2996)
    #dbg_declare(ptr %26, !2997, !DIExpression(), !2998)
    #dbg_declare(ptr %27, !2999, !DIExpression(), !3000)
    #dbg_declare(ptr %28, !3001, !DIExpression(), !3002)
    #dbg_declare(ptr %29, !3003, !DIExpression(), !3004)
    #dbg_declare(ptr %30, !3005, !DIExpression(), !3013)
    #dbg_declare(ptr %31, !3014, !DIExpression(), !3015)
    #dbg_declare(ptr %32, !3016, !DIExpression(), !3017)
    #dbg_declare(ptr %33, !3018, !DIExpression(), !3019)
    #dbg_declare(ptr %34, !3020, !DIExpression(), !3021)
  store i32 2147483647, ptr %34, align 4, !dbg !3021
    #dbg_declare(ptr %35, !3022, !DIExpression(), !3023)
  store i32 0, ptr %35, align 4, !dbg !3023
    #dbg_declare(ptr %36, !3024, !DIExpression(), !3025)
  store i32 -1, ptr %36, align 4, !dbg !3025
    #dbg_declare(ptr %37, !3026, !DIExpression(), !3027)
  store i32 -1, ptr %37, align 4, !dbg !3027
    #dbg_declare(ptr %38, !3028, !DIExpression(), !3029)
  store i32 0, ptr %38, align 4, !dbg !3029
    #dbg_declare(ptr %39, !3030, !DIExpression(), !3031)
    #dbg_declare(ptr %40, !3032, !DIExpression(), !3033)
  %63 = load i32, ptr @fvi_nest_count, align 4, !dbg !3034
  store i32 %63, ptr %40, align 4, !dbg !3033
  %64 = load i32, ptr %21, align 4, !dbg !3035
  %65 = and i32 %64, 8, !dbg !3037
  %66 = icmp ne i32 %65, 0, !dbg !3035
  br i1 %66, label %67, label %70, !dbg !3035

67:                                               ; preds = %12
  %68 = load i32, ptr %16, align 4, !dbg !3038
  %69 = load ptr, ptr %22, align 8, !dbg !3039
  store i32 %68, ptr %69, align 4, !dbg !3040
  br label %70, !dbg !3041

70:                                               ; preds = %67, %12
  %71 = load ptr, ptr %23, align 8, !dbg !3042
  store i32 1, ptr %71, align 4, !dbg !3043
  %72 = load i32, ptr %16, align 4, !dbg !3044
  %73 = sext i32 %72 to i64, !dbg !3045
  %74 = getelementptr inbounds [0 x %struct.segment], ptr @Segments, i64 0, i64 %73, !dbg !3045
  store ptr %74, ptr %25, align 8, !dbg !3046
  %75 = load i32, ptr @fvi_nest_count, align 4, !dbg !3047
  %76 = add nsw i32 %75, 1, !dbg !3047
  store i32 %76, ptr @fvi_nest_count, align 4, !dbg !3047
  %77 = load i32, ptr %21, align 4, !dbg !3048
  %78 = and i32 %77, 1, !dbg !3050
  %79 = icmp ne i32 %78, 0, !dbg !3048
  br i1 %79, label %80, label %285, !dbg !3048

80:                                               ; preds = %70
  %81 = load ptr, ptr %25, align 8, !dbg !3051
  %82 = getelementptr inbounds nuw %struct.segment, ptr %81, i32 0, i32 3, !dbg !3053
  %83 = load i32, ptr %82, align 4, !dbg !3053
  store i32 %83, ptr %29, align 4, !dbg !3054
  br label %84, !dbg !3055

84:                                               ; preds = %277, %80
  %85 = load i32, ptr %29, align 4, !dbg !3056
  %86 = icmp ne i32 %85, -1, !dbg !3058
  br i1 %86, label %87, label %284, !dbg !3059

87:                                               ; preds = %84
  %88 = load i32, ptr %29, align 4, !dbg !3060
  %89 = sext i32 %88 to i64, !dbg !3062
  %90 = getelementptr inbounds [0 x %struct.object], ptr @Objects, i64 0, i64 %89, !dbg !3062
  %91 = getelementptr inbounds nuw %struct.object, ptr %90, i32 0, i32 8, !dbg !3063
  %92 = load i8, ptr %91, align 1, !dbg !3063
  %93 = zext i8 %92 to i32, !dbg !3062
  %94 = and i32 %93, 2, !dbg !3064
  %95 = icmp ne i32 %94, 0, !dbg !3065
  br i1 %95, label %276, label %96, !dbg !3066

96:                                               ; preds = %87
  %97 = load i16, ptr %19, align 2, !dbg !3067
  %98 = sext i16 %97 to i32, !dbg !3067
  %99 = load i32, ptr %29, align 4, !dbg !3068
  %100 = icmp eq i32 %98, %99, !dbg !3069
  br i1 %100, label %276, label %101, !dbg !3070

101:                                              ; preds = %96
  %102 = load ptr, ptr %20, align 8, !dbg !3071
  %103 = icmp eq ptr %102, null, !dbg !3072
  br i1 %103, label %109, label %104, !dbg !3073

104:                                              ; preds = %101
  %105 = load i32, ptr %29, align 4, !dbg !3074
  %106 = load ptr, ptr %20, align 8, !dbg !3075
  %107 = call noundef i32 @_Z11obj_in_listiPi(i32 noundef %105, ptr noundef %106), !dbg !3076
  %108 = icmp ne i32 %107, 0, !dbg !3076
  br i1 %108, label %276, label %109, !dbg !3077

109:                                              ; preds = %104, %101
  %110 = load i32, ptr %29, align 4, !dbg !3078
  %111 = load i16, ptr %19, align 2, !dbg !3079
  %112 = sext i16 %111 to i32, !dbg !3079
  %113 = call noundef i32 @_Z17laser_are_relatedii(i32 noundef %110, i32 noundef %112), !dbg !3080
  %114 = icmp ne i32 %113, 0, !dbg !3080
  br i1 %114, label %276, label %115, !dbg !3081

115:                                              ; preds = %109
  %116 = load i16, ptr %19, align 2, !dbg !3082
  %117 = sext i16 %116 to i32, !dbg !3082
  %118 = icmp sgt i32 %117, -1, !dbg !3083
  br i1 %118, label %119, label %155, !dbg !3084

119:                                              ; preds = %115
  %120 = load i16, ptr %19, align 2, !dbg !3085
  %121 = sext i16 %120 to i64, !dbg !3086
  %122 = getelementptr inbounds [0 x %struct.object], ptr @Objects, i64 0, i64 %121, !dbg !3086
  %123 = getelementptr inbounds nuw %struct.object, ptr %122, i32 0, i32 1, !dbg !3087
  %124 = load i8, ptr %123, align 4, !dbg !3087
  %125 = zext i8 %124 to i64, !dbg !3088
  %126 = getelementptr inbounds nuw [16 x [16 x i8]], ptr @CollisionResult, i64 0, i64 %125, !dbg !3088
  %127 = load i32, ptr %29, align 4, !dbg !3089
  %128 = sext i32 %127 to i64, !dbg !3090
  %129 = getelementptr inbounds [0 x %struct.object], ptr @Objects, i64 0, i64 %128, !dbg !3090
  %130 = getelementptr inbounds nuw %struct.object, ptr %129, i32 0, i32 1, !dbg !3091
  %131 = load i8, ptr %130, align 4, !dbg !3091
  %132 = zext i8 %131 to i64, !dbg !3088
  %133 = getelementptr inbounds nuw [16 x i8], ptr %126, i64 0, i64 %132, !dbg !3088
  %134 = load i8, ptr %133, align 1, !dbg !3088
  %135 = zext i8 %134 to i32, !dbg !3088
  %136 = icmp eq i32 %135, 0, !dbg !3092
  br i1 %136, label %137, label %155, !dbg !3093

137:                                              ; preds = %119
  %138 = load i32, ptr %29, align 4, !dbg !3094
  %139 = sext i32 %138 to i64, !dbg !3095
  %140 = getelementptr inbounds [0 x %struct.object], ptr @Objects, i64 0, i64 %139, !dbg !3095
  %141 = getelementptr inbounds nuw %struct.object, ptr %140, i32 0, i32 1, !dbg !3096
  %142 = load i8, ptr %141, align 4, !dbg !3096
  %143 = zext i8 %142 to i64, !dbg !3097
  %144 = getelementptr inbounds nuw [16 x [16 x i8]], ptr @CollisionResult, i64 0, i64 %143, !dbg !3097
  %145 = load i16, ptr %19, align 2, !dbg !3098
  %146 = sext i16 %145 to i64, !dbg !3099
  %147 = getelementptr inbounds [0 x %struct.object], ptr @Objects, i64 0, i64 %146, !dbg !3099
  %148 = getelementptr inbounds nuw %struct.object, ptr %147, i32 0, i32 1, !dbg !3100
  %149 = load i8, ptr %148, align 4, !dbg !3100
  %150 = zext i8 %149 to i64, !dbg !3097
  %151 = getelementptr inbounds nuw [16 x i8], ptr %144, i64 0, i64 %150, !dbg !3097
  %152 = load i8, ptr %151, align 1, !dbg !3097
  %153 = zext i8 %152 to i32, !dbg !3097
  %154 = icmp eq i32 %153, 0, !dbg !3101
  br i1 %154, label %276, label %155, !dbg !3081

155:                                              ; preds = %137, %119, %115
    #dbg_declare(ptr %41, !3102, !DIExpression(), !3104)
  %156 = load i32, ptr %18, align 4, !dbg !3105
  store i32 %156, ptr %41, align 4, !dbg !3104
  %157 = load i32, ptr %29, align 4, !dbg !3106
  %158 = sext i32 %157 to i64, !dbg !3108
  %159 = getelementptr inbounds [0 x %struct.object], ptr @Objects, i64 0, i64 %158, !dbg !3108
  %160 = getelementptr inbounds nuw %struct.object, ptr %159, i32 0, i32 1, !dbg !3109
  %161 = load i8, ptr %160, align 4, !dbg !3109
  %162 = zext i8 %161 to i32, !dbg !3108
  %163 = icmp eq i32 %162, 7, !dbg !3110
  br i1 %163, label %164, label %170, !dbg !3110

164:                                              ; preds = %155
  %165 = load i32, ptr %21, align 4, !dbg !3111
  %166 = and i32 %165, 16, !dbg !3113
  %167 = icmp ne i32 %166, 0, !dbg !3111
  br i1 %167, label %168, label %169, !dbg !3111

168:                                              ; preds = %164
  br label %277, !dbg !3114

169:                                              ; preds = %164
  br label %170, !dbg !3115

170:                                              ; preds = %169, %155
  %171 = load i16, ptr %19, align 2, !dbg !3116
  %172 = sext i16 %171 to i64, !dbg !3118
  %173 = getelementptr inbounds [0 x %struct.object], ptr @Objects, i64 0, i64 %172, !dbg !3118
  %174 = getelementptr inbounds nuw %struct.object, ptr %173, i32 0, i32 1, !dbg !3119
  %175 = load i8, ptr %174, align 4, !dbg !3119
  %176 = zext i8 %175 to i32, !dbg !3118
  %177 = icmp eq i32 %176, 2, !dbg !3120
  br i1 %177, label %178, label %188, !dbg !3120

178:                                              ; preds = %170
  %179 = load i32, ptr %29, align 4, !dbg !3121
  %180 = sext i32 %179 to i64, !dbg !3123
  %181 = getelementptr inbounds [0 x %struct.object], ptr @Objects, i64 0, i64 %180, !dbg !3123
  %182 = getelementptr inbounds nuw %struct.object, ptr %181, i32 0, i32 1, !dbg !3124
  %183 = load i8, ptr %182, align 4, !dbg !3124
  %184 = zext i8 %183 to i32, !dbg !3123
  %185 = icmp eq i32 %184, 2, !dbg !3125
  br i1 %185, label %186, label %187, !dbg !3125

186:                                              ; preds = %178
  br label %277, !dbg !3126

187:                                              ; preds = %178
  br label %188, !dbg !3127

188:                                              ; preds = %187, %170
  %189 = load i16, ptr %19, align 2, !dbg !3128
  %190 = sext i16 %189 to i64, !dbg !3130
  %191 = getelementptr inbounds [0 x %struct.object], ptr @Objects, i64 0, i64 %190, !dbg !3130
  %192 = getelementptr inbounds nuw %struct.object, ptr %191, i32 0, i32 1, !dbg !3131
  %193 = load i8, ptr %192, align 4, !dbg !3131
  %194 = zext i8 %193 to i32, !dbg !3130
  %195 = icmp eq i32 %194, 2, !dbg !3132
  br i1 %195, label %196, label %211, !dbg !3133

196:                                              ; preds = %188
  %197 = load i16, ptr %19, align 2, !dbg !3134
  %198 = sext i16 %197 to i64, !dbg !3135
  %199 = getelementptr inbounds [0 x %struct.object], ptr @Objects, i64 0, i64 %198, !dbg !3135
  %200 = getelementptr inbounds nuw %struct.object, ptr %199, i32 0, i32 2, !dbg !3136
  %201 = load i8, ptr %200, align 1, !dbg !3136
  %202 = zext i8 %201 to i64, !dbg !3137
  %203 = getelementptr inbounds nuw [0 x %struct.robot_info], ptr @Robot_info, i64 0, i64 %202, !dbg !3137
  %204 = getelementptr inbounds nuw %struct.robot_info, ptr %203, i32 0, i32 31, !dbg !3138
  %205 = load i8, ptr %204, align 1, !dbg !3138
  %206 = icmp ne i8 %205, 0, !dbg !3137
  br i1 %206, label %207, label %211, !dbg !3133

207:                                              ; preds = %196
  %208 = load i32, ptr %18, align 4, !dbg !3139
  %209 = mul nsw i32 %208, 3, !dbg !3140
  %210 = sdiv i32 %209, 4, !dbg !3141
  store i32 %210, ptr %41, align 4, !dbg !3142
  br label %211, !dbg !3143

211:                                              ; preds = %207, %196, %188
  %212 = load i16, ptr %19, align 2, !dbg !3144
  %213 = sext i16 %212 to i64, !dbg !3146
  %214 = getelementptr inbounds [0 x %struct.object], ptr @Objects, i64 0, i64 %213, !dbg !3146
  %215 = getelementptr inbounds nuw %struct.object, ptr %214, i32 0, i32 1, !dbg !3147
  %216 = load i8, ptr %215, align 4, !dbg !3147
  %217 = zext i8 %216 to i32, !dbg !3146
  %218 = icmp eq i32 %217, 4, !dbg !3148
  br i1 %218, label %219, label %251, !dbg !3149

219:                                              ; preds = %211
  %220 = load i32, ptr %29, align 4, !dbg !3150
  %221 = sext i32 %220 to i64, !dbg !3151
  %222 = getelementptr inbounds [0 x %struct.object], ptr @Objects, i64 0, i64 %221, !dbg !3151
  %223 = getelementptr inbounds nuw %struct.object, ptr %222, i32 0, i32 1, !dbg !3152
  %224 = load i8, ptr %223, align 4, !dbg !3152
  %225 = zext i8 %224 to i32, !dbg !3151
  %226 = icmp eq i32 %225, 4, !dbg !3153
  br i1 %226, label %248, label %227, !dbg !3154

227:                                              ; preds = %219
  %228 = load i32, ptr @Game_mode, align 4, !dbg !3155
  %229 = and i32 %228, 16, !dbg !3156
  %230 = icmp ne i32 %229, 0, !dbg !3157
  br i1 %230, label %231, label %251, !dbg !3158

231:                                              ; preds = %227
  %232 = load i32, ptr %29, align 4, !dbg !3159
  %233 = sext i32 %232 to i64, !dbg !3160
  %234 = getelementptr inbounds [0 x %struct.object], ptr @Objects, i64 0, i64 %233, !dbg !3160
  %235 = getelementptr inbounds nuw %struct.object, ptr %234, i32 0, i32 1, !dbg !3161
  %236 = load i8, ptr %235, align 4, !dbg !3161
  %237 = zext i8 %236 to i32, !dbg !3160
  %238 = icmp eq i32 %237, 5, !dbg !3162
  br i1 %238, label %239, label %251, !dbg !3163

239:                                              ; preds = %231
  %240 = load i32, ptr %29, align 4, !dbg !3164
  %241 = sext i32 %240 to i64, !dbg !3165
  %242 = getelementptr inbounds [0 x %struct.object], ptr @Objects, i64 0, i64 %241, !dbg !3165
  %243 = getelementptr inbounds nuw %struct.object, ptr %242, i32 0, i32 22, !dbg !3166
  %244 = getelementptr inbounds nuw %struct.laser_info_s, ptr %243, i32 0, i32 0, !dbg !3167
  %245 = load i16, ptr %244, align 4, !dbg !3167
  %246 = sext i16 %245 to i32, !dbg !3165
  %247 = icmp eq i32 %246, 4, !dbg !3168
  br i1 %247, label %248, label %251, !dbg !3149

248:                                              ; preds = %239, %219
  %249 = load i32, ptr %18, align 4, !dbg !3169
  %250 = sdiv i32 %249, 2, !dbg !3170
  store i32 %250, ptr %41, align 4, !dbg !3171
  br label %251, !dbg !3172

251:                                              ; preds = %248, %239, %231, %227, %211
  %252 = load ptr, ptr %15, align 8, !dbg !3173
  %253 = load ptr, ptr %17, align 8, !dbg !3174
  %254 = load i32, ptr %41, align 4, !dbg !3175
  %255 = load i32, ptr %29, align 4, !dbg !3176
  %256 = sext i32 %255 to i64, !dbg !3177
  %257 = getelementptr inbounds [0 x %struct.object], ptr @Objects, i64 0, i64 %256, !dbg !3177
  %258 = load i16, ptr %19, align 2, !dbg !3178
  %259 = sext i16 %258 to i64, !dbg !3179
  %260 = getelementptr inbounds [0 x %struct.object], ptr @Objects, i64 0, i64 %259, !dbg !3179
  %261 = call noundef i32 @_Z22check_vector_to_objectP10vms_vectorS0_S0_iP6objectS2_(ptr noundef %31, ptr noundef %252, ptr noundef %253, i32 noundef %254, ptr noundef %257, ptr noundef %260), !dbg !3180
  store i32 %261, ptr %33, align 4, !dbg !3181
  %262 = load i32, ptr %33, align 4, !dbg !3182
  %263 = icmp ne i32 %262, 0, !dbg !3182
  br i1 %263, label %264, label %275, !dbg !3182

264:                                              ; preds = %251
  %265 = load i32, ptr %33, align 4, !dbg !3184
  %266 = load i32, ptr %34, align 4, !dbg !3186
  %267 = icmp slt i32 %265, %266, !dbg !3187
  br i1 %267, label %268, label %274, !dbg !3187

268:                                              ; preds = %264
  %269 = load i32, ptr %29, align 4, !dbg !3188
  store i32 %269, ptr @fvi_hit_object, align 4, !dbg !3190
  %270 = load i32, ptr @fvi_hit_object, align 4, !dbg !3191
  %271 = icmp ne i32 %270, -1, !dbg !3191
  %272 = zext i1 %271 to i32, !dbg !3191
  call void @_Z7_AssertiPKcS0_i(i32 noundef %272, ptr noundef @.str.7, ptr noundef @.str.1, i32 noundef 1036), !dbg !3191
  %273 = load i32, ptr %33, align 4, !dbg !3192
  store i32 %273, ptr %34, align 4, !dbg !3193
  call void @llvm.memcpy.p0.p0.i64(ptr align 4 %32, ptr align 4 %31, i64 12, i1 false), !dbg !3194
  store i32 2, ptr %35, align 4, !dbg !3195
  br label %274, !dbg !3196

274:                                              ; preds = %268, %264
  br label %275, !dbg !3186

275:                                              ; preds = %274, %251
  br label %276, !dbg !3197

276:                                              ; preds = %275, %137, %109, %104, %96, %87
  br label %277, !dbg !3198

277:                                              ; preds = %276, %186, %168
  %278 = load i32, ptr %29, align 4, !dbg !3199
  %279 = sext i32 %278 to i64, !dbg !3200
  %280 = getelementptr inbounds [0 x %struct.object], ptr @Objects, i64 0, i64 %279, !dbg !3200
  %281 = getelementptr inbounds nuw %struct.object, ptr %280, i32 0, i32 3, !dbg !3201
  %282 = load i16, ptr %281, align 2, !dbg !3201
  %283 = sext i16 %282 to i32, !dbg !3200
  store i32 %283, ptr %29, align 4, !dbg !3202
  br label %84, !dbg !3203, !llvm.loop !3204

284:                                              ; preds = %84
  br label %285, !dbg !3205

285:                                              ; preds = %284, %70
  %286 = load i16, ptr %19, align 2, !dbg !3206
  %287 = sext i16 %286 to i32, !dbg !3206
  %288 = icmp sgt i32 %287, -1, !dbg !3208
  br i1 %288, label %289, label %302, !dbg !3209

289:                                              ; preds = %285
  %290 = load i16, ptr %19, align 2, !dbg !3210
  %291 = sext i16 %290 to i64, !dbg !3211
  %292 = getelementptr inbounds [0 x %struct.object], ptr @Objects, i64 0, i64 %291, !dbg !3211
  %293 = getelementptr inbounds nuw %struct.object, ptr %292, i32 0, i32 1, !dbg !3212
  %294 = load i8, ptr %293, align 4, !dbg !3212
  %295 = zext i8 %294 to i64, !dbg !3213
  %296 = getelementptr inbounds nuw [16 x [16 x i8]], ptr @CollisionResult, i64 0, i64 %295, !dbg !3213
  %297 = getelementptr inbounds [16 x i8], ptr %296, i64 0, i64 0, !dbg !3213
  %298 = load i8, ptr %297, align 1, !dbg !3213
  %299 = zext i8 %298 to i32, !dbg !3213
  %300 = icmp eq i32 %299, 0, !dbg !3214
  br i1 %300, label %301, label %302, !dbg !3209

301:                                              ; preds = %289
  store i32 0, ptr %18, align 4, !dbg !3215
  br label %302, !dbg !3216

302:                                              ; preds = %301, %289, %285
  %303 = load ptr, ptr %15, align 8, !dbg !3217
  %304 = load i32, ptr %16, align 4, !dbg !3218
  %305 = load i32, ptr %18, align 4, !dbg !3219
  %306 = call i32 @_Z13get_seg_masksP10vms_vectorii(ptr noundef %303, i32 noundef %304, i32 noundef %305), !dbg !3220
  store i32 %306, ptr %42, align 2, !dbg !3220
  %307 = getelementptr inbounds nuw %struct.segmasks, ptr %42, i32 0, i32 0, !dbg !3221
  %308 = load i16, ptr %307, align 2, !dbg !3221
  %309 = sext i16 %308 to i32, !dbg !3220
  store i32 %309, ptr %26, align 4, !dbg !3222
  %310 = load ptr, ptr %17, align 8, !dbg !3223
  %311 = load i32, ptr %16, align 4, !dbg !3224
  %312 = load i32, ptr %18, align 4, !dbg !3225
  %313 = call i32 @_Z13get_seg_masksP10vms_vectorii(ptr noundef %310, i32 noundef %311, i32 noundef %312), !dbg !3226
  store i32 %313, ptr %43, align 2, !dbg !3226
  call void @llvm.memcpy.p0.p0.i64(ptr align 2 %30, ptr align 2 %43, i64 4, i1 false), !dbg !3227
  %314 = getelementptr inbounds nuw %struct.segmasks, ptr %30, i32 0, i32 0, !dbg !3228
  %315 = load i16, ptr %314, align 2, !dbg !3228
  %316 = sext i16 %315 to i32, !dbg !3229
  store i32 %316, ptr %27, align 4, !dbg !3230
  %317 = getelementptr inbounds nuw %struct.segmasks, ptr %30, i32 0, i32 2, !dbg !3231
  %318 = load i8, ptr %317, align 1, !dbg !3231
  %319 = sext i8 %318 to i32, !dbg !3232
  store i32 %319, ptr %28, align 4, !dbg !3233
  %320 = load i32, ptr %28, align 4, !dbg !3234
  %321 = icmp eq i32 %320, 0, !dbg !3236
  br i1 %321, label %322, label %324, !dbg !3236

322:                                              ; preds = %302
  %323 = load i32, ptr %16, align 4, !dbg !3237
  store i32 %323, ptr %37, align 4, !dbg !3238
  br label %324, !dbg !3239

324:                                              ; preds = %322, %302
  %325 = load i32, ptr %27, align 4, !dbg !3240
  %326 = icmp ne i32 %325, 0, !dbg !3242
  br i1 %326, label %327, label %715, !dbg !3242

327:                                              ; preds = %324
    #dbg_declare(ptr %44, !3243, !DIExpression(), !3245)
    #dbg_declare(ptr %45, !3246, !DIExpression(), !3247)
    #dbg_declare(ptr %46, !3248, !DIExpression(), !3249)
  store i32 0, ptr %44, align 4, !dbg !3250
  store i32 1, ptr %45, align 4, !dbg !3252
  br label %328, !dbg !3253

328:                                              ; preds = %711, %327
  %329 = load i32, ptr %44, align 4, !dbg !3254
  %330 = icmp slt i32 %329, 6, !dbg !3256
  br i1 %330, label %331, label %335, !dbg !3257

331:                                              ; preds = %328
  %332 = load i32, ptr %27, align 4, !dbg !3258
  %333 = load i32, ptr %45, align 4, !dbg !3259
  %334 = icmp sge i32 %332, %333, !dbg !3260
  br label %335

335:                                              ; preds = %331, %328
  %336 = phi i1 [ false, %328 ], [ %334, %331 ], !dbg !3261
  br i1 %336, label %337, label %714, !dbg !3262

337:                                              ; preds = %335
    #dbg_declare(ptr %47, !3263, !DIExpression(), !3265)
  %338 = load ptr, ptr %25, align 8, !dbg !3266
  %339 = getelementptr inbounds nuw %struct.segment, ptr %338, i32 0, i32 0, !dbg !3267
  %340 = load i32, ptr %44, align 4, !dbg !3268
  %341 = sext i32 %340 to i64, !dbg !3266
  %342 = getelementptr inbounds [6 x %struct.side], ptr %339, i64 0, i64 %341, !dbg !3266
  %343 = call noundef i32 @_Z13get_num_facesP4side(ptr noundef %342), !dbg !3269
  store i32 %343, ptr %47, align 4, !dbg !3270
  %344 = load i32, ptr %47, align 4, !dbg !3271
  %345 = icmp eq i32 %344, 0, !dbg !3273
  br i1 %345, label %346, label %347, !dbg !3273

346:                                              ; preds = %337
  store i32 1, ptr %47, align 4, !dbg !3274
  br label %347, !dbg !3275

347:                                              ; preds = %346, %337
  store i32 0, ptr %46, align 4, !dbg !3276
  br label %348, !dbg !3278

348:                                              ; preds = %705, %347
  %349 = load i32, ptr %46, align 4, !dbg !3279
  %350 = icmp slt i32 %349, 2, !dbg !3281
  br i1 %350, label %351, label %710, !dbg !3282

351:                                              ; preds = %348
  %352 = load i32, ptr %27, align 4, !dbg !3283
  %353 = load i32, ptr %45, align 4, !dbg !3286
  %354 = and i32 %352, %353, !dbg !3287
  %355 = icmp ne i32 %354, 0, !dbg !3283
  br i1 %355, label %356, label %704, !dbg !3283

356:                                              ; preds = %351
    #dbg_declare(ptr %48, !3288, !DIExpression(), !3290)
  %357 = load ptr, ptr %25, align 8, !dbg !3291
  %358 = getelementptr inbounds nuw %struct.segment, ptr %357, i32 0, i32 1, !dbg !3293
  %359 = load i32, ptr %44, align 4, !dbg !3294
  %360 = sext i32 %359 to i64, !dbg !3291
  %361 = getelementptr inbounds [6 x i16], ptr %358, i64 0, i64 %360, !dbg !3291
  %362 = load i16, ptr %361, align 2, !dbg !3291
  %363 = sext i16 %362 to i32, !dbg !3291
  %364 = load i32, ptr %24, align 4, !dbg !3295
  %365 = icmp eq i32 %363, %364, !dbg !3296
  br i1 %365, label %366, label %367, !dbg !3296

366:                                              ; preds = %356
  br label %705, !dbg !3297

367:                                              ; preds = %356
  %368 = load i32, ptr %26, align 4, !dbg !3298
  %369 = load i32, ptr %45, align 4, !dbg !3300
  %370 = and i32 %368, %369, !dbg !3301
  %371 = icmp ne i32 %370, 0, !dbg !3298
  br i1 %371, label %372, label %384, !dbg !3298

372:                                              ; preds = %367
  %373 = load ptr, ptr %15, align 8, !dbg !3302
  %374 = load ptr, ptr %17, align 8, !dbg !3303
  %375 = load ptr, ptr %25, align 8, !dbg !3304
  %376 = load i32, ptr %44, align 4, !dbg !3305
  %377 = load i32, ptr %46, align 4, !dbg !3306
  %378 = load i32, ptr %47, align 4, !dbg !3307
  %379 = icmp eq i32 %378, 1, !dbg !3308
  %380 = zext i1 %379 to i64, !dbg !3309
  %381 = select i1 %379, i32 4, i32 3, !dbg !3309
  %382 = load i32, ptr %18, align 4, !dbg !3310
  %383 = call noundef i32 @_Z26special_check_line_to_faceP10vms_vectorS0_S0_P7segmentiiii(ptr noundef %31, ptr noundef %373, ptr noundef %374, ptr noundef %375, i32 noundef %376, i32 noundef %377, i32 noundef %381, i32 noundef %382), !dbg !3311
  store i32 %383, ptr %48, align 4, !dbg !3312
  br label %396, !dbg !3313

384:                                              ; preds = %367
  %385 = load ptr, ptr %15, align 8, !dbg !3314
  %386 = load ptr, ptr %17, align 8, !dbg !3315
  %387 = load ptr, ptr %25, align 8, !dbg !3316
  %388 = load i32, ptr %44, align 4, !dbg !3317
  %389 = load i32, ptr %46, align 4, !dbg !3318
  %390 = load i32, ptr %47, align 4, !dbg !3319
  %391 = icmp eq i32 %390, 1, !dbg !3320
  %392 = zext i1 %391 to i64, !dbg !3321
  %393 = select i1 %391, i32 4, i32 3, !dbg !3321
  %394 = load i32, ptr %18, align 4, !dbg !3322
  %395 = call noundef i32 @_Z18check_line_to_faceP10vms_vectorS0_S0_P7segmentiiii(ptr noundef %31, ptr noundef %385, ptr noundef %386, ptr noundef %387, i32 noundef %388, i32 noundef %389, i32 noundef %393, i32 noundef %394), !dbg !3323
  store i32 %395, ptr %48, align 4, !dbg !3324
  br label %396

396:                                              ; preds = %384, %372
  %397 = load i32, ptr %48, align 4, !dbg !3325
  %398 = icmp ne i32 %397, 0, !dbg !3325
  br i1 %398, label %399, label %703, !dbg !3325

399:                                              ; preds = %396
    #dbg_declare(ptr %49, !3327, !DIExpression(), !3329)
  %400 = load i16, ptr %19, align 2, !dbg !3330
  %401 = sext i16 %400 to i32, !dbg !3330
  %402 = load i32, ptr @Player_num, align 4, !dbg !3332
  %403 = sext i32 %402 to i64, !dbg !3333
  %404 = getelementptr inbounds [12 x %struct.player], ptr @Players, i64 0, i64 %403, !dbg !3333
  %405 = getelementptr inbounds nuw %struct.player, ptr %404, i32 0, i32 4, !dbg !3334
  %406 = load i32, ptr %405, align 4, !dbg !3334
  %407 = icmp eq i32 %401, %406, !dbg !3335
  br i1 %407, label %408, label %464, !dbg !3336

408:                                              ; preds = %399
  %409 = load i32, ptr @Physics_cheat_flag, align 4, !dbg !3337
  %410 = icmp eq i32 %409, 12245589, !dbg !3338
  br i1 %410, label %411, label %464, !dbg !3336

411:                                              ; preds = %408
  %412 = load ptr, ptr %25, align 8, !dbg !3339
  %413 = getelementptr inbounds nuw %struct.segment, ptr %412, i32 0, i32 1, !dbg !3339
  %414 = load i32, ptr %44, align 4, !dbg !3339
  %415 = sext i32 %414 to i64, !dbg !3339
  %416 = getelementptr inbounds [6 x i16], ptr %413, i64 0, i64 %415, !dbg !3339
  %417 = load i16, ptr %416, align 2, !dbg !3339
  %418 = sext i16 %417 to i32, !dbg !3339
  %419 = icmp eq i32 %418, -1, !dbg !3339
  br i1 %419, label %420, label %421, !dbg !3339

420:                                              ; preds = %411
  br label %450, !dbg !3339

421:                                              ; preds = %411
  %422 = load ptr, ptr %25, align 8, !dbg !3339
  %423 = getelementptr inbounds nuw %struct.segment, ptr %422, i32 0, i32 1, !dbg !3339
  %424 = load i32, ptr %44, align 4, !dbg !3339
  %425 = sext i32 %424 to i64, !dbg !3339
  %426 = getelementptr inbounds [6 x i16], ptr %423, i64 0, i64 %425, !dbg !3339
  %427 = load i16, ptr %426, align 2, !dbg !3339
  %428 = sext i16 %427 to i32, !dbg !3339
  %429 = icmp eq i32 %428, -2, !dbg !3339
  br i1 %429, label %430, label %431, !dbg !3339

430:                                              ; preds = %421
  br label %448, !dbg !3339

431:                                              ; preds = %421
  %432 = load ptr, ptr %25, align 8, !dbg !3339
  %433 = getelementptr inbounds nuw %struct.segment, ptr %432, i32 0, i32 0, !dbg !3339
  %434 = load i32, ptr %44, align 4, !dbg !3339
  %435 = sext i32 %434 to i64, !dbg !3339
  %436 = getelementptr inbounds [6 x %struct.side], ptr %433, i64 0, i64 %435, !dbg !3339
  %437 = getelementptr inbounds nuw %struct.side, ptr %436, i32 0, i32 2, !dbg !3339
  %438 = load i16, ptr %437, align 2, !dbg !3339
  %439 = sext i16 %438 to i32, !dbg !3339
  %440 = icmp eq i32 %439, -1, !dbg !3339
  br i1 %440, label %441, label %442, !dbg !3339

441:                                              ; preds = %431
  br label %446, !dbg !3339

442:                                              ; preds = %431
  %443 = load ptr, ptr %25, align 8, !dbg !3339
  %444 = load i32, ptr %44, align 4, !dbg !3339
  %445 = call noundef i32 @_Z15wall_is_doorwayP7segmenti(ptr noundef %443, i32 noundef %444), !dbg !3339
  br label %446, !dbg !3339

446:                                              ; preds = %442, %441
  %447 = phi i32 [ 5, %441 ], [ %445, %442 ], !dbg !3339
  br label %448, !dbg !3339

448:                                              ; preds = %446, %430
  %449 = phi i32 [ 8, %430 ], [ %447, %446 ], !dbg !3339
  br label %450, !dbg !3339

450:                                              ; preds = %448, %420
  %451 = phi i32 [ 2, %420 ], [ %449, %448 ], !dbg !3339
  store i32 %451, ptr %49, align 4, !dbg !3341
  %452 = load ptr, ptr %25, align 8, !dbg !3342
  %453 = getelementptr inbounds nuw %struct.segment, ptr %452, i32 0, i32 1, !dbg !3344
  %454 = load i32, ptr %44, align 4, !dbg !3345
  %455 = sext i32 %454 to i64, !dbg !3342
  %456 = getelementptr inbounds [6 x i16], ptr %453, i64 0, i64 %455, !dbg !3342
  %457 = load i16, ptr %456, align 2, !dbg !3342
  %458 = sext i16 %457 to i32, !dbg !3342
  %459 = icmp sge i32 %458, 0, !dbg !3346
  br i1 %459, label %460, label %463, !dbg !3346

460:                                              ; preds = %450
  %461 = load i32, ptr %49, align 4, !dbg !3347
  %462 = or i32 %461, 1, !dbg !3347
  store i32 %462, ptr %49, align 4, !dbg !3347
  br label %463, !dbg !3348

463:                                              ; preds = %460, %450
  br label %505, !dbg !3349

464:                                              ; preds = %408, %399
  %465 = load ptr, ptr %25, align 8, !dbg !3350
  %466 = getelementptr inbounds nuw %struct.segment, ptr %465, i32 0, i32 1, !dbg !3350
  %467 = load i32, ptr %44, align 4, !dbg !3350
  %468 = sext i32 %467 to i64, !dbg !3350
  %469 = getelementptr inbounds [6 x i16], ptr %466, i64 0, i64 %468, !dbg !3350
  %470 = load i16, ptr %469, align 2, !dbg !3350
  %471 = sext i16 %470 to i32, !dbg !3350
  %472 = icmp eq i32 %471, -1, !dbg !3350
  br i1 %472, label %473, label %474, !dbg !3350

473:                                              ; preds = %464
  br label %503, !dbg !3350

474:                                              ; preds = %464
  %475 = load ptr, ptr %25, align 8, !dbg !3350
  %476 = getelementptr inbounds nuw %struct.segment, ptr %475, i32 0, i32 1, !dbg !3350
  %477 = load i32, ptr %44, align 4, !dbg !3350
  %478 = sext i32 %477 to i64, !dbg !3350
  %479 = getelementptr inbounds [6 x i16], ptr %476, i64 0, i64 %478, !dbg !3350
  %480 = load i16, ptr %479, align 2, !dbg !3350
  %481 = sext i16 %480 to i32, !dbg !3350
  %482 = icmp eq i32 %481, -2, !dbg !3350
  br i1 %482, label %483, label %484, !dbg !3350

483:                                              ; preds = %474
  br label %501, !dbg !3350

484:                                              ; preds = %474
  %485 = load ptr, ptr %25, align 8, !dbg !3350
  %486 = getelementptr inbounds nuw %struct.segment, ptr %485, i32 0, i32 0, !dbg !3350
  %487 = load i32, ptr %44, align 4, !dbg !3350
  %488 = sext i32 %487 to i64, !dbg !3350
  %489 = getelementptr inbounds [6 x %struct.side], ptr %486, i64 0, i64 %488, !dbg !3350
  %490 = getelementptr inbounds nuw %struct.side, ptr %489, i32 0, i32 2, !dbg !3350
  %491 = load i16, ptr %490, align 2, !dbg !3350
  %492 = sext i16 %491 to i32, !dbg !3350
  %493 = icmp eq i32 %492, -1, !dbg !3350
  br i1 %493, label %494, label %495, !dbg !3350

494:                                              ; preds = %484
  br label %499, !dbg !3350

495:                                              ; preds = %484
  %496 = load ptr, ptr %25, align 8, !dbg !3350
  %497 = load i32, ptr %44, align 4, !dbg !3350
  %498 = call noundef i32 @_Z15wall_is_doorwayP7segmenti(ptr noundef %496, i32 noundef %497), !dbg !3350
  br label %499, !dbg !3350

499:                                              ; preds = %495, %494
  %500 = phi i32 [ 5, %494 ], [ %498, %495 ], !dbg !3350
  br label %501, !dbg !3350

501:                                              ; preds = %499, %483
  %502 = phi i32 [ 8, %483 ], [ %500, %499 ], !dbg !3350
  br label %503, !dbg !3350

503:                                              ; preds = %501, %473
  %504 = phi i32 [ 2, %473 ], [ %502, %501 ], !dbg !3350
  store i32 %504, ptr %49, align 4, !dbg !3352
  br label %505

505:                                              ; preds = %503, %463
  %506 = load i32, ptr %49, align 4, !dbg !3353
  %507 = and i32 %506, 1, !dbg !3355
  %508 = icmp ne i32 %507, 0, !dbg !3356
  br i1 %508, label %531, label %509, !dbg !3357

509:                                              ; preds = %505
  %510 = load i32, ptr %49, align 4, !dbg !3358
  %511 = and i32 %510, 2, !dbg !3359
  %512 = icmp ne i32 %511, 0, !dbg !3360
  br i1 %512, label %513, label %669, !dbg !3361

513:                                              ; preds = %509
  %514 = load i32, ptr %49, align 4, !dbg !3362
  %515 = and i32 %514, 4, !dbg !3363
  %516 = icmp ne i32 %515, 0, !dbg !3364
  br i1 %516, label %517, label %669, !dbg !3365

517:                                              ; preds = %513
  %518 = load i32, ptr %21, align 4, !dbg !3366
  %519 = and i32 %518, 2, !dbg !3367
  %520 = icmp ne i32 %519, 0, !dbg !3368
  br i1 %520, label %531, label %521, !dbg !3369

521:                                              ; preds = %517
  %522 = load i32, ptr %21, align 4, !dbg !3370
  %523 = and i32 %522, 4, !dbg !3371
  %524 = icmp ne i32 %523, 0, !dbg !3370
  br i1 %524, label %525, label %669, !dbg !3372

525:                                              ; preds = %521
  %526 = load ptr, ptr %25, align 8, !dbg !3373
  %527 = load i32, ptr %44, align 4, !dbg !3374
  %528 = load i32, ptr %46, align 4, !dbg !3375
  %529 = call noundef i32 @_Z16check_trans_wallP10vms_vectorP7segmentii(ptr noundef %31, ptr noundef %526, i32 noundef %527, i32 noundef %528), !dbg !3376
  %530 = icmp ne i32 %529, 0, !dbg !3376
  br i1 %530, label %531, label %669, !dbg !3357

531:                                              ; preds = %525, %517, %505
    #dbg_declare(ptr %50, !3377, !DIExpression(), !3379)
    #dbg_declare(ptr %51, !3380, !DIExpression(), !3381)
    #dbg_declare(ptr %52, !3382, !DIExpression(), !3383)
    #dbg_declare(ptr %53, !3384, !DIExpression(), !3385)
    #dbg_declare(ptr %54, !3386, !DIExpression(), !3387)
  call void @llvm.memcpy.p0.p0.i64(ptr align 4 %54, ptr align 4 @wall_norm, i64 12, i1 false), !dbg !3388
    #dbg_declare(ptr %55, !3389, !DIExpression(), !3390)
  %532 = load i32, ptr @fvi_hit_object, align 4, !dbg !3391
  store i32 %532, ptr %55, align 4, !dbg !3390
    #dbg_declare(ptr %56, !3392, !DIExpression(), !3393)
  %533 = load ptr, ptr %25, align 8, !dbg !3394
  %534 = getelementptr inbounds nuw %struct.segment, ptr %533, i32 0, i32 1, !dbg !3395
  %535 = load i32, ptr %44, align 4, !dbg !3396
  %536 = sext i32 %535 to i64, !dbg !3394
  %537 = getelementptr inbounds [6 x i16], ptr %534, i64 0, i64 %536, !dbg !3394
  %538 = load i16, ptr %537, align 2, !dbg !3394
  %539 = sext i16 %538 to i32, !dbg !3394
  store i32 %539, ptr %50, align 4, !dbg !3397
  store i32 0, ptr %56, align 4, !dbg !3398
  br label %540, !dbg !3400

540:                                              ; preds = %555, %531
  %541 = load i32, ptr %56, align 4, !dbg !3401
  %542 = load i32, ptr @n_segs_visited, align 4, !dbg !3403
  %543 = icmp slt i32 %541, %542, !dbg !3404
  br i1 %543, label %544, label %552, !dbg !3405

544:                                              ; preds = %540
  %545 = load i32, ptr %50, align 4, !dbg !3406
  %546 = load i32, ptr %56, align 4, !dbg !3407
  %547 = sext i32 %546 to i64, !dbg !3408
  %548 = getelementptr inbounds [100 x i16], ptr @segs_visited, i64 0, i64 %547, !dbg !3408
  %549 = load i16, ptr %548, align 2, !dbg !3408
  %550 = sext i16 %549 to i32, !dbg !3408
  %551 = icmp ne i32 %545, %550, !dbg !3409
  br label %552

552:                                              ; preds = %544, %540
  %553 = phi i1 [ false, %540 ], [ %551, %544 ], !dbg !3410
  br i1 %553, label %554, label %558, !dbg !3411

554:                                              ; preds = %552
  br label %555, !dbg !3411

555:                                              ; preds = %554
  %556 = load i32, ptr %56, align 4, !dbg !3412
  %557 = add nsw i32 %556, 1, !dbg !3412
  store i32 %557, ptr %56, align 4, !dbg !3412
  br label %540, !dbg !3413, !llvm.loop !3414

558:                                              ; preds = %552
  %559 = load i32, ptr %56, align 4, !dbg !3416
  %560 = load i32, ptr @n_segs_visited, align 4, !dbg !3418
  %561 = icmp eq i32 %559, %560, !dbg !3419
  br i1 %561, label %562, label %668, !dbg !3419

562:                                              ; preds = %558
    #dbg_declare(ptr %57, !3420, !DIExpression(), !3422)
    #dbg_declare(ptr %58, !3423, !DIExpression(), !3424)
  %563 = load i32, ptr %50, align 4, !dbg !3425
  %564 = trunc i32 %563 to i16, !dbg !3425
  %565 = load i32, ptr @n_segs_visited, align 4, !dbg !3426
  %566 = add nsw i32 %565, 1, !dbg !3426
  store i32 %566, ptr @n_segs_visited, align 4, !dbg !3426
  %567 = sext i32 %565 to i64, !dbg !3427
  %568 = getelementptr inbounds [100 x i16], ptr @segs_visited, i64 0, i64 %567, !dbg !3427
  store i16 %564, ptr %568, align 2, !dbg !3428
  %569 = load i32, ptr @n_segs_visited, align 4, !dbg !3429
  %570 = icmp sge i32 %569, 100, !dbg !3431
  br i1 %570, label %571, label %572, !dbg !3431

571:                                              ; preds = %562
  br label %716, !dbg !3432

572:                                              ; preds = %562
  %573 = load ptr, ptr %15, align 8, !dbg !3433
  %574 = load i32, ptr %50, align 4, !dbg !3434
  %575 = load ptr, ptr %17, align 8, !dbg !3435
  %576 = load i32, ptr %18, align 4, !dbg !3436
  %577 = load i16, ptr %19, align 2, !dbg !3437
  %578 = load ptr, ptr %20, align 8, !dbg !3438
  %579 = load i32, ptr %21, align 4, !dbg !3439
  %580 = getelementptr inbounds [100 x i32], ptr %57, i64 0, i64 0, !dbg !3440
  %581 = load i32, ptr %16, align 4, !dbg !3441
  %582 = call noundef i32 @_Z7fvi_subP10vms_vectorPiS0_iS0_isS1_iS1_S1_i(ptr noundef %51, ptr noundef %53, ptr noundef %573, i32 noundef %574, ptr noundef %575, i32 noundef %576, i16 noundef signext %577, ptr noundef %578, i32 noundef %579, ptr noundef %580, ptr noundef %58, i32 noundef %581), !dbg !3442
  store i32 %582, ptr %52, align 4, !dbg !3443
  %583 = load i32, ptr %52, align 4, !dbg !3444
  %584 = icmp ne i32 %583, 0, !dbg !3446
  br i1 %584, label %585, label %634, !dbg !3446

585:                                              ; preds = %572
  %586 = load ptr, ptr %15, align 8, !dbg !3447
  %587 = call noundef i32 @_Z11vm_vec_distP10vms_vectorS0_(ptr noundef %51, ptr noundef %586), !dbg !3449
  store i32 %587, ptr %33, align 4, !dbg !3450
  %588 = load i32, ptr %33, align 4, !dbg !3451
  %589 = load i32, ptr %34, align 4, !dbg !3453
  %590 = icmp slt i32 %588, %589, !dbg !3454
  br i1 %590, label %591, label %631, !dbg !3454

591:                                              ; preds = %585
  %592 = load i32, ptr %33, align 4, !dbg !3455
  store i32 %592, ptr %34, align 4, !dbg !3457
  call void @llvm.memcpy.p0.p0.i64(ptr align 4 %32, ptr align 4 %51, i64 12, i1 false), !dbg !3458
  %593 = load i32, ptr %52, align 4, !dbg !3459
  store i32 %593, ptr %35, align 4, !dbg !3460
  %594 = load i32, ptr %53, align 4, !dbg !3461
  %595 = icmp ne i32 %594, -1, !dbg !3463
  br i1 %595, label %596, label %598, !dbg !3463

596:                                              ; preds = %591
  %597 = load i32, ptr %53, align 4, !dbg !3464
  store i32 %597, ptr %36, align 4, !dbg !3465
  br label %598, !dbg !3466

598:                                              ; preds = %596, %591
  %599 = load i32, ptr %21, align 4, !dbg !3467
  %600 = and i32 %599, 8, !dbg !3469
  %601 = icmp ne i32 %600, 0, !dbg !3467
  br i1 %601, label %602, label %626, !dbg !3467

602:                                              ; preds = %598
    #dbg_declare(ptr %59, !3470, !DIExpression(), !3472)
  store i32 0, ptr %59, align 4, !dbg !3473
  br label %603, !dbg !3475

603:                                              ; preds = %613, %602
  %604 = load i32, ptr %56, align 4, !dbg !3476
  %605 = load i32, ptr %58, align 4, !dbg !3478
  %606 = icmp slt i32 %604, %605, !dbg !3479
  br i1 %606, label %607, label %611, !dbg !3480

607:                                              ; preds = %603
  %608 = load ptr, ptr %23, align 8, !dbg !3481
  %609 = load i32, ptr %608, align 4, !dbg !3482
  %610 = icmp slt i32 %609, 99, !dbg !3483
  br label %611

611:                                              ; preds = %607, %603
  %612 = phi i1 [ false, %603 ], [ %610, %607 ], !dbg !3484
  br i1 %612, label %613, label %625, !dbg !3485

613:                                              ; preds = %611
  %614 = load i32, ptr %59, align 4, !dbg !3486
  %615 = add nsw i32 %614, 1, !dbg !3486
  store i32 %615, ptr %59, align 4, !dbg !3486
  %616 = sext i32 %614 to i64, !dbg !3487
  %617 = getelementptr inbounds [100 x i32], ptr %57, i64 0, i64 %616, !dbg !3487
  %618 = load i32, ptr %617, align 4, !dbg !3487
  %619 = load ptr, ptr %22, align 8, !dbg !3488
  %620 = load ptr, ptr %23, align 8, !dbg !3489
  %621 = load i32, ptr %620, align 4, !dbg !3490
  %622 = add nsw i32 %621, 1, !dbg !3490
  store i32 %622, ptr %620, align 4, !dbg !3490
  %623 = sext i32 %621 to i64, !dbg !3488
  %624 = getelementptr inbounds i32, ptr %619, i64 %623, !dbg !3488
  store i32 %618, ptr %624, align 4, !dbg !3491
  br label %603, !dbg !3492, !llvm.loop !3493

625:                                              ; preds = %611
  br label %626, !dbg !3495

626:                                              ; preds = %625, %598
  %627 = load ptr, ptr %23, align 8, !dbg !3496
  %628 = load i32, ptr %627, align 4, !dbg !3496
  %629 = icmp slt i32 %628, 100, !dbg !3496
  %630 = zext i1 %629 to i32, !dbg !3496
  call void @_Z7_AssertiPKcS0_i(i32 noundef %630, ptr noundef @.str.8, ptr noundef @.str.1, i32 noundef 1156), !dbg !3496
  br label %633, !dbg !3497

631:                                              ; preds = %585
  call void @llvm.memcpy.p0.p0.i64(ptr align 4 @wall_norm, ptr align 4 %54, i64 12, i1 false), !dbg !3498
  %632 = load i32, ptr %55, align 4, !dbg !3500
  store i32 %632, ptr @fvi_hit_object, align 4, !dbg !3501
  br label %633

633:                                              ; preds = %631, %626
  br label %667, !dbg !3502

634:                                              ; preds = %572
  call void @llvm.memcpy.p0.p0.i64(ptr align 4 @wall_norm, ptr align 4 %54, i64 12, i1 false), !dbg !3503
  %635 = load i32, ptr %53, align 4, !dbg !3505
  %636 = icmp ne i32 %635, -1, !dbg !3507
  br i1 %636, label %637, label %639, !dbg !3507

637:                                              ; preds = %634
  %638 = load i32, ptr %53, align 4, !dbg !3508
  store i32 %638, ptr %37, align 4, !dbg !3509
  br label %639, !dbg !3510

639:                                              ; preds = %637, %634
  %640 = load i32, ptr %21, align 4, !dbg !3511
  %641 = and i32 %640, 8, !dbg !3513
  %642 = icmp ne i32 %641, 0, !dbg !3511
  br i1 %642, label %643, label %665, !dbg !3511

643:                                              ; preds = %639
    #dbg_declare(ptr %60, !3514, !DIExpression(), !3516)
  store i32 0, ptr %60, align 4, !dbg !3517
  br label %644, !dbg !3519

644:                                              ; preds = %661, %643
  %645 = load i32, ptr %60, align 4, !dbg !3520
  %646 = load i32, ptr %58, align 4, !dbg !3522
  %647 = icmp slt i32 %645, %646, !dbg !3523
  br i1 %647, label %648, label %651, !dbg !3524

648:                                              ; preds = %644
  %649 = load i32, ptr %60, align 4, !dbg !3525
  %650 = icmp slt i32 %649, 99, !dbg !3526
  br label %651

651:                                              ; preds = %648, %644
  %652 = phi i1 [ false, %644 ], [ %650, %648 ], !dbg !3527
  br i1 %652, label %653, label %664, !dbg !3528

653:                                              ; preds = %651
  %654 = load i32, ptr %60, align 4, !dbg !3529
  %655 = sext i32 %654 to i64, !dbg !3530
  %656 = getelementptr inbounds [100 x i32], ptr %57, i64 0, i64 %655, !dbg !3530
  %657 = load i32, ptr %656, align 4, !dbg !3530
  %658 = load i32, ptr %60, align 4, !dbg !3531
  %659 = sext i32 %658 to i64, !dbg !3532
  %660 = getelementptr inbounds [100 x i32], ptr %39, i64 0, i64 %659, !dbg !3532
  store i32 %657, ptr %660, align 4, !dbg !3533
  br label %661, !dbg !3532

661:                                              ; preds = %653
  %662 = load i32, ptr %60, align 4, !dbg !3534
  %663 = add nsw i32 %662, 1, !dbg !3534
  store i32 %663, ptr %60, align 4, !dbg !3534
  br label %644, !dbg !3535, !llvm.loop !3536

664:                                              ; preds = %651
  br label %665, !dbg !3538

665:                                              ; preds = %664, %639
  %666 = load i32, ptr %58, align 4, !dbg !3539
  store i32 %666, ptr %38, align 4, !dbg !3540
  br label %667

667:                                              ; preds = %665, %633
  br label %668, !dbg !3541

668:                                              ; preds = %667, %558
  br label %702, !dbg !3542

669:                                              ; preds = %525, %521, %513, %509
  %670 = load ptr, ptr %15, align 8, !dbg !3543
  %671 = call noundef i32 @_Z11vm_vec_distP10vms_vectorS0_(ptr noundef %31, ptr noundef %670), !dbg !3545
  store i32 %671, ptr %33, align 4, !dbg !3546
  %672 = load i32, ptr %33, align 4, !dbg !3547
  %673 = load i32, ptr %34, align 4, !dbg !3549
  %674 = icmp slt i32 %672, %673, !dbg !3550
  br i1 %674, label %675, label %701, !dbg !3550

675:                                              ; preds = %669
  %676 = load i32, ptr %33, align 4, !dbg !3551
  store i32 %676, ptr %34, align 4, !dbg !3553
  call void @llvm.memcpy.p0.p0.i64(ptr align 4 %32, ptr align 4 %31, i64 12, i1 false), !dbg !3554
  store i32 1, ptr %35, align 4, !dbg !3555
  %677 = load ptr, ptr %25, align 8, !dbg !3556
  %678 = getelementptr inbounds nuw %struct.segment, ptr %677, i32 0, i32 0, !dbg !3557
  %679 = load i32, ptr %44, align 4, !dbg !3558
  %680 = sext i32 %679 to i64, !dbg !3556
  %681 = getelementptr inbounds [6 x %struct.side], ptr %678, i64 0, i64 %680, !dbg !3556
  %682 = getelementptr inbounds nuw %struct.side, ptr %681, i32 0, i32 6, !dbg !3559
  %683 = load i32, ptr %46, align 4, !dbg !3560
  %684 = sext i32 %683 to i64, !dbg !3556
  %685 = getelementptr inbounds [2 x %struct.vms_vector], ptr %682, i64 0, i64 %684, !dbg !3556
  call void @llvm.memcpy.p0.p0.i64(ptr align 4 @wall_norm, ptr align 4 %685, i64 12, i1 false), !dbg !3561
  %686 = load i32, ptr %16, align 4, !dbg !3562
  %687 = load i32, ptr %18, align 4, !dbg !3564
  %688 = call i32 @_Z13get_seg_masksP10vms_vectorii(ptr noundef %31, i32 noundef %686, i32 noundef %687), !dbg !3565
  store i32 %688, ptr %61, align 2, !dbg !3565
  %689 = getelementptr inbounds nuw %struct.segmasks, ptr %61, i32 0, i32 2, !dbg !3566
  %690 = load i8, ptr %689, align 1, !dbg !3566
  %691 = sext i8 %690 to i32, !dbg !3565
  %692 = icmp eq i32 %691, 0, !dbg !3567
  br i1 %692, label %693, label %695, !dbg !3565

693:                                              ; preds = %675
  %694 = load i32, ptr %16, align 4, !dbg !3568
  store i32 %694, ptr %36, align 4, !dbg !3569
  br label %697, !dbg !3570

695:                                              ; preds = %675
  %696 = load i32, ptr %16, align 4, !dbg !3571
  store i32 %696, ptr @fvi_hit_seg2, align 4, !dbg !3572
  br label %697

697:                                              ; preds = %695, %693
  %698 = load i32, ptr %36, align 4, !dbg !3573
  store i32 %698, ptr @fvi_hit_seg, align 4, !dbg !3574
  %699 = load i32, ptr %44, align 4, !dbg !3575
  store i32 %699, ptr @fvi_hit_side, align 4, !dbg !3576
  %700 = load i32, ptr %16, align 4, !dbg !3577
  store i32 %700, ptr @fvi_hit_side_seg, align 4, !dbg !3578
  br label %701, !dbg !3579

701:                                              ; preds = %697, %669
  br label %702

702:                                              ; preds = %701, %668
  br label %703, !dbg !3580

703:                                              ; preds = %702, %396
  br label %704, !dbg !3581

704:                                              ; preds = %703, %351
  br label %705, !dbg !3582

705:                                              ; preds = %704, %366
  %706 = load i32, ptr %46, align 4, !dbg !3583
  %707 = add nsw i32 %706, 1, !dbg !3583
  store i32 %707, ptr %46, align 4, !dbg !3583
  %708 = load i32, ptr %45, align 4, !dbg !3584
  %709 = shl i32 %708, 1, !dbg !3584
  store i32 %709, ptr %45, align 4, !dbg !3584
  br label %348, !dbg !3585, !llvm.loop !3586

710:                                              ; preds = %348
  br label %711, !dbg !3588

711:                                              ; preds = %710
  %712 = load i32, ptr %44, align 4, !dbg !3589
  %713 = add nsw i32 %712, 1, !dbg !3589
  store i32 %713, ptr %44, align 4, !dbg !3589
  br label %328, !dbg !3590, !llvm.loop !3591

714:                                              ; preds = %335
  br label %715, !dbg !3593

715:                                              ; preds = %714, %324
  br label %716, !dbg !3594

716:                                              ; preds = %715, %571
    #dbg_label(!3595, !3596)
  %717 = load i32, ptr %35, align 4, !dbg !3597
  %718 = icmp eq i32 %717, 0, !dbg !3599
  br i1 %718, label %719, label %762, !dbg !3599

719:                                              ; preds = %716
    #dbg_declare(ptr %62, !3600, !DIExpression(), !3602)
  %720 = load ptr, ptr %17, align 8, !dbg !3603
  %721 = load ptr, ptr %13, align 8, !dbg !3604
  call void @llvm.memcpy.p0.p0.i64(ptr align 4 %721, ptr align 4 %720, i64 12, i1 false), !dbg !3605
  %722 = load i32, ptr %37, align 4, !dbg !3606
  %723 = load ptr, ptr %14, align 8, !dbg !3607
  store i32 %722, ptr %723, align 4, !dbg !3608
  %724 = load i32, ptr %37, align 4, !dbg !3609
  %725 = icmp ne i32 %724, -1, !dbg !3611
  br i1 %725, label %726, label %755, !dbg !3611

726:                                              ; preds = %719
  %727 = load i32, ptr %21, align 4, !dbg !3612
  %728 = and i32 %727, 8, !dbg !3615
  %729 = icmp ne i32 %728, 0, !dbg !3612
  br i1 %729, label %730, label %754, !dbg !3612

730:                                              ; preds = %726
  store i32 0, ptr %62, align 4, !dbg !3616
  br label %731, !dbg !3618

731:                                              ; preds = %741, %730
  %732 = load i32, ptr %62, align 4, !dbg !3619
  %733 = load i32, ptr %38, align 4, !dbg !3621
  %734 = icmp slt i32 %732, %733, !dbg !3622
  br i1 %734, label %735, label %739, !dbg !3623

735:                                              ; preds = %731
  %736 = load ptr, ptr %23, align 8, !dbg !3624
  %737 = load i32, ptr %736, align 4, !dbg !3625
  %738 = icmp slt i32 %737, 99, !dbg !3626
  br label %739

739:                                              ; preds = %735, %731
  %740 = phi i1 [ false, %731 ], [ %738, %735 ], !dbg !3627
  br i1 %740, label %741, label %753, !dbg !3628

741:                                              ; preds = %739
  %742 = load i32, ptr %62, align 4, !dbg !3629
  %743 = add nsw i32 %742, 1, !dbg !3629
  store i32 %743, ptr %62, align 4, !dbg !3629
  %744 = sext i32 %742 to i64, !dbg !3630
  %745 = getelementptr inbounds [100 x i32], ptr %39, i64 0, i64 %744, !dbg !3630
  %746 = load i32, ptr %745, align 4, !dbg !3630
  %747 = load ptr, ptr %22, align 8, !dbg !3631
  %748 = load ptr, ptr %23, align 8, !dbg !3632
  %749 = load i32, ptr %748, align 4, !dbg !3633
  %750 = add nsw i32 %749, 1, !dbg !3633
  store i32 %750, ptr %748, align 4, !dbg !3633
  %751 = sext i32 %749 to i64, !dbg !3631
  %752 = getelementptr inbounds i32, ptr %747, i64 %751, !dbg !3631
  store i32 %746, ptr %752, align 4, !dbg !3634
  br label %731, !dbg !3635, !llvm.loop !3636

753:                                              ; preds = %739
  br label %754, !dbg !3637

754:                                              ; preds = %753, %726
  br label %761, !dbg !3638

755:                                              ; preds = %719
  %756 = load i32, ptr %40, align 4, !dbg !3639
  %757 = icmp ne i32 %756, 0, !dbg !3641
  br i1 %757, label %758, label %760, !dbg !3641

758:                                              ; preds = %755
  %759 = load ptr, ptr %23, align 8, !dbg !3642
  store i32 0, ptr %759, align 4, !dbg !3643
  br label %760, !dbg !3644

760:                                              ; preds = %758, %755
  br label %761

761:                                              ; preds = %760, %754
  br label %780, !dbg !3645

762:                                              ; preds = %716
  %763 = load ptr, ptr %13, align 8, !dbg !3646
  call void @llvm.memcpy.p0.p0.i64(ptr align 4 %763, ptr align 4 %32, i64 12, i1 false), !dbg !3648
  %764 = load i32, ptr %36, align 4, !dbg !3649
  %765 = icmp eq i32 %764, -1, !dbg !3651
  br i1 %765, label %766, label %776, !dbg !3651

766:                                              ; preds = %762
  %767 = load i32, ptr @fvi_hit_seg2, align 4, !dbg !3652
  %768 = icmp ne i32 %767, -1, !dbg !3654
  br i1 %768, label %769, label %772, !dbg !3654

769:                                              ; preds = %766
  %770 = load i32, ptr @fvi_hit_seg2, align 4, !dbg !3655
  %771 = load ptr, ptr %14, align 8, !dbg !3656
  store i32 %770, ptr %771, align 4, !dbg !3657
  br label %775, !dbg !3658

772:                                              ; preds = %766
  %773 = load i32, ptr %37, align 4, !dbg !3659
  %774 = load ptr, ptr %14, align 8, !dbg !3660
  store i32 %773, ptr %774, align 4, !dbg !3661
  br label %775

775:                                              ; preds = %772, %769
  br label %779, !dbg !3662

776:                                              ; preds = %762
  %777 = load i32, ptr %36, align 4, !dbg !3663
  %778 = load ptr, ptr %14, align 8, !dbg !3664
  store i32 %777, ptr %778, align 4, !dbg !3665
  br label %779

779:                                              ; preds = %776, %775
  br label %780

780:                                              ; preds = %779, %761
  %781 = load i32, ptr %35, align 4, !dbg !3666
  %782 = icmp eq i32 %781, 2, !dbg !3666
  br i1 %782, label %783, label %786, !dbg !3666

783:                                              ; preds = %780
  %784 = load i32, ptr @fvi_hit_object, align 4, !dbg !3666
  %785 = icmp eq i32 %784, -1, !dbg !3666
  br label %786

786:                                              ; preds = %783, %780
  %787 = phi i1 [ false, %780 ], [ %785, %783 ], !dbg !3667
  %788 = xor i1 %787, true, !dbg !3666
  %789 = zext i1 %788 to i32, !dbg !3666
  call void @_Z7_AssertiPKcS0_i(i32 noundef %789, ptr noundef @.str.6, ptr noundef @.str.1, i32 noundef 1255), !dbg !3666
  %790 = load i32, ptr %35, align 4, !dbg !3668
  ret i32 %790, !dbg !3669
}

declare noundef i32 @_Z14find_point_segP10vms_vectori(ptr noundef, i32 noundef) #3

; Function Attrs: mustprogress noinline nounwind ssp uwtable(sync)
define noundef i32 @_Z11obj_in_listiPi(i32 noundef %0, ptr noundef %1) #0 !dbg !3670 {
  %3 = alloca i32, align 4
  %4 = alloca ptr, align 8
  %5 = alloca i32, align 4
  store i32 %0, ptr %3, align 4
    #dbg_declare(ptr %3, !3673, !DIExpression(), !3674)
  store ptr %1, ptr %4, align 8
    #dbg_declare(ptr %4, !3675, !DIExpression(), !3676)
    #dbg_declare(ptr %5, !3677, !DIExpression(), !3678)
  br label %6, !dbg !3679

6:                                                ; preds = %16, %2
  %7 = load ptr, ptr %4, align 8, !dbg !3680
  %8 = load i32, ptr %7, align 4, !dbg !3681
  store i32 %8, ptr %5, align 4, !dbg !3682
  %9 = icmp ne i32 %8, -1, !dbg !3683
  br i1 %9, label %10, label %14, !dbg !3684

10:                                               ; preds = %6
  %11 = load i32, ptr %5, align 4, !dbg !3685
  %12 = load i32, ptr %3, align 4, !dbg !3686
  %13 = icmp ne i32 %11, %12, !dbg !3687
  br label %14

14:                                               ; preds = %10, %6
  %15 = phi i1 [ false, %6 ], [ %13, %10 ], !dbg !3688
  br i1 %15, label %16, label %19, !dbg !3679

16:                                               ; preds = %14
  %17 = load ptr, ptr %4, align 8, !dbg !3689
  %18 = getelementptr inbounds nuw i32, ptr %17, i32 1, !dbg !3689
  store ptr %18, ptr %4, align 8, !dbg !3689
  br label %6, !dbg !3679, !llvm.loop !3690

19:                                               ; preds = %14
  %20 = load i32, ptr %5, align 4, !dbg !3691
  %21 = load i32, ptr %3, align 4, !dbg !3692
  %22 = icmp eq i32 %20, %21, !dbg !3693
  %23 = zext i1 %22 to i32, !dbg !3694
  ret i32 %23, !dbg !3695
}

declare noundef i32 @_Z17laser_are_relatedii(i32 noundef, i32 noundef) #3

declare noundef i32 @_Z13get_num_facesP4side(ptr noundef) #3

declare noundef i32 @_Z15wall_is_doorwayP7segmenti(ptr noundef, i32 noundef) #3

; Function Attrs: mustprogress noinline ssp uwtable(sync)
define noundef i32 @_Z16check_trans_wallP10vms_vectorP7segmentii(ptr noundef %0, ptr noundef %1, i32 noundef %2, i32 noundef %3) #2 !dbg !3696 {
  %5 = alloca ptr, align 8
  %6 = alloca ptr, align 8
  %7 = alloca i32, align 4
  %8 = alloca i32, align 4
  %9 = alloca ptr, align 8
  %10 = alloca ptr, align 8
  %11 = alloca i32, align 4
  %12 = alloca i32, align 4
  %13 = alloca i32, align 4
  %14 = alloca i32, align 4
  %15 = alloca %struct.bitmap_index, align 2
  store ptr %0, ptr %5, align 8
    #dbg_declare(ptr %5, !3699, !DIExpression(), !3700)
  store ptr %1, ptr %6, align 8
    #dbg_declare(ptr %6, !3701, !DIExpression(), !3702)
  store i32 %2, ptr %7, align 4
    #dbg_declare(ptr %7, !3703, !DIExpression(), !3704)
  store i32 %3, ptr %8, align 4
    #dbg_declare(ptr %8, !3705, !DIExpression(), !3706)
    #dbg_declare(ptr %9, !3707, !DIExpression(), !3724)
    #dbg_declare(ptr %10, !3725, !DIExpression(), !3726)
  %16 = load ptr, ptr %6, align 8, !dbg !3727
  %17 = getelementptr inbounds nuw %struct.segment, ptr %16, i32 0, i32 0, !dbg !3728
  %18 = load i32, ptr %7, align 4, !dbg !3729
  %19 = sext i32 %18 to i64, !dbg !3727
  %20 = getelementptr inbounds [6 x %struct.side], ptr %17, i64 0, i64 %19, !dbg !3727
  store ptr %20, ptr %10, align 8, !dbg !3726
    #dbg_declare(ptr %11, !3730, !DIExpression(), !3731)
    #dbg_declare(ptr %12, !3732, !DIExpression(), !3733)
    #dbg_declare(ptr %13, !3734, !DIExpression(), !3735)
    #dbg_declare(ptr %14, !3736, !DIExpression(), !3737)
  %21 = load ptr, ptr %5, align 8, !dbg !3738
  %22 = load ptr, ptr %6, align 8, !dbg !3739
  %23 = load i32, ptr %7, align 4, !dbg !3740
  %24 = load i32, ptr %8, align 4, !dbg !3741
  call void @_Z16find_hitpoint_uvPiS_S_P10vms_vectorP7segmentii(ptr noundef %13, ptr noundef %14, ptr noundef null, ptr noundef %21, ptr noundef %22, i32 noundef %23, i32 noundef %24), !dbg !3742
  %25 = load ptr, ptr %10, align 8, !dbg !3743
  %26 = getelementptr inbounds nuw %struct.side, ptr %25, i32 0, i32 4, !dbg !3745
  %27 = load i16, ptr %26, align 2, !dbg !3745
  %28 = sext i16 %27 to i32, !dbg !3743
  %29 = icmp ne i32 %28, 0, !dbg !3746
  br i1 %29, label %30, label %40, !dbg !3746

30:                                               ; preds = %4
  %31 = load ptr, ptr %10, align 8, !dbg !3747
  %32 = getelementptr inbounds nuw %struct.side, ptr %31, i32 0, i32 3, !dbg !3749
  %33 = load i16, ptr %32, align 4, !dbg !3749
  %34 = sext i16 %33 to i32, !dbg !3747
  %35 = load ptr, ptr %10, align 8, !dbg !3750
  %36 = getelementptr inbounds nuw %struct.side, ptr %35, i32 0, i32 4, !dbg !3751
  %37 = load i16, ptr %36, align 2, !dbg !3751
  %38 = sext i16 %37 to i32, !dbg !3750
  %39 = call noundef ptr @_Z26texmerge_get_cached_bitmapii(i32 noundef %34, i32 noundef %38), !dbg !3752
  store ptr %39, ptr %9, align 8, !dbg !3753
  br label %76, !dbg !3754

40:                                               ; preds = %4
  %41 = load ptr, ptr %10, align 8, !dbg !3755
  %42 = getelementptr inbounds nuw %struct.side, ptr %41, i32 0, i32 3, !dbg !3757
  %43 = load i16, ptr %42, align 4, !dbg !3757
  %44 = sext i16 %43 to i64, !dbg !3758
  %45 = getelementptr inbounds [1200 x %struct.bitmap_index], ptr @Textures, i64 0, i64 %44, !dbg !3758
  %46 = getelementptr inbounds nuw %struct.bitmap_index, ptr %45, i32 0, i32 0, !dbg !3759
  %47 = load i16, ptr %46, align 2, !dbg !3759
  %48 = zext i16 %47 to i64, !dbg !3760
  %49 = getelementptr inbounds nuw [2620 x %struct._grs_bitmap], ptr @GameBitmaps, i64 0, i64 %48, !dbg !3760
  store ptr %49, ptr %9, align 8, !dbg !3761
  br label %50, !dbg !3762

50:                                               ; preds = %40
  %51 = load ptr, ptr %10, align 8, !dbg !3763
  %52 = getelementptr inbounds nuw %struct.side, ptr %51, i32 0, i32 3, !dbg !3763
  %53 = load i16, ptr %52, align 4, !dbg !3763
  %54 = sext i16 %53 to i64, !dbg !3763
  %55 = getelementptr inbounds [1200 x %struct.bitmap_index], ptr @Textures, i64 0, i64 %54, !dbg !3763
  %56 = getelementptr inbounds nuw %struct.bitmap_index, ptr %55, i32 0, i32 0, !dbg !3763
  %57 = load i16, ptr %56, align 2, !dbg !3763
  %58 = zext i16 %57 to i64, !dbg !3763
  %59 = getelementptr inbounds nuw [2620 x %struct._grs_bitmap], ptr @GameBitmaps, i64 0, i64 %58, !dbg !3763
  %60 = getelementptr inbounds nuw %struct._grs_bitmap, ptr %59, i32 0, i32 5, !dbg !3763
  %61 = load i8, ptr %60, align 1, !dbg !3763
  %62 = sext i8 %61 to i32, !dbg !3763
  %63 = and i32 %62, 16, !dbg !3763
  %64 = icmp ne i32 %63, 0, !dbg !3763
  br i1 %64, label %65, label %74, !dbg !3763

65:                                               ; preds = %50
  %66 = load ptr, ptr %10, align 8, !dbg !3766
  %67 = getelementptr inbounds nuw %struct.side, ptr %66, i32 0, i32 3, !dbg !3766
  %68 = load i16, ptr %67, align 4, !dbg !3766
  %69 = sext i16 %68 to i64, !dbg !3766
  %70 = getelementptr inbounds [1200 x %struct.bitmap_index], ptr @Textures, i64 0, i64 %69, !dbg !3766
  call void @llvm.memcpy.p0.p0.i64(ptr align 2 %15, ptr align 2 %70, i64 2, i1 false), !dbg !3766
  %71 = getelementptr inbounds nuw %struct.bitmap_index, ptr %15, i32 0, i32 0, !dbg !3766
  %72 = load i16, ptr %71, align 2, !dbg !3766
  %73 = zext i16 %72 to i64, !dbg !3766
  call void @_Z20piggy_bitmap_page_in12bitmap_index(i64 %73), !dbg !3766
  br label %74, !dbg !3766

74:                                               ; preds = %65, %50
  br label %75, !dbg !3768

75:                                               ; preds = %74
  br label %76

76:                                               ; preds = %75, %30
  %77 = load ptr, ptr %9, align 8, !dbg !3769
  %78 = getelementptr inbounds nuw %struct._grs_bitmap, ptr %77, i32 0, i32 5, !dbg !3771
  %79 = load i8, ptr %78, align 1, !dbg !3771
  %80 = sext i8 %79 to i32, !dbg !3769
  %81 = and i32 %80, 8, !dbg !3772
  %82 = icmp ne i32 %81, 0, !dbg !3769
  br i1 %82, label %83, label %86, !dbg !3769

83:                                               ; preds = %76
  %84 = load ptr, ptr %9, align 8, !dbg !3773
  %85 = call noundef ptr @_Z18rle_expand_textureP11_grs_bitmap(ptr noundef %84), !dbg !3774
  store ptr %85, ptr %9, align 8, !dbg !3775
  br label %86, !dbg !3776

86:                                               ; preds = %83, %76
  %87 = load i32, ptr %13, align 4, !dbg !3777
  %88 = load ptr, ptr %9, align 8, !dbg !3778
  %89 = getelementptr inbounds nuw %struct._grs_bitmap, ptr %88, i32 0, i32 2, !dbg !3779
  %90 = load i16, ptr %89, align 4, !dbg !3779
  %91 = sext i16 %90 to i32, !dbg !3778
  %92 = mul nsw i32 %87, %91, !dbg !3780
  %93 = call noundef i32 @_Z3f2ii(i32 noundef %92), !dbg !3781
  %94 = load ptr, ptr %9, align 8, !dbg !3782
  %95 = getelementptr inbounds nuw %struct._grs_bitmap, ptr %94, i32 0, i32 2, !dbg !3783
  %96 = load i16, ptr %95, align 4, !dbg !3783
  %97 = sext i16 %96 to i32, !dbg !3782
  %98 = urem i32 %93, %97, !dbg !3784
  store i32 %98, ptr %11, align 4, !dbg !3785
  %99 = load i32, ptr %14, align 4, !dbg !3786
  %100 = load ptr, ptr %9, align 8, !dbg !3787
  %101 = getelementptr inbounds nuw %struct._grs_bitmap, ptr %100, i32 0, i32 3, !dbg !3788
  %102 = load i16, ptr %101, align 2, !dbg !3788
  %103 = sext i16 %102 to i32, !dbg !3787
  %104 = mul nsw i32 %99, %103, !dbg !3789
  %105 = call noundef i32 @_Z3f2ii(i32 noundef %104), !dbg !3790
  %106 = load ptr, ptr %9, align 8, !dbg !3791
  %107 = getelementptr inbounds nuw %struct._grs_bitmap, ptr %106, i32 0, i32 3, !dbg !3792
  %108 = load i16, ptr %107, align 2, !dbg !3792
  %109 = sext i16 %108 to i32, !dbg !3791
  %110 = urem i32 %105, %109, !dbg !3793
  store i32 %110, ptr %12, align 4, !dbg !3794
  %111 = load ptr, ptr %9, align 8, !dbg !3795
  %112 = getelementptr inbounds nuw %struct._grs_bitmap, ptr %111, i32 0, i32 7, !dbg !3796
  %113 = load ptr, ptr %112, align 8, !dbg !3796
  %114 = load i32, ptr %12, align 4, !dbg !3797
  %115 = load ptr, ptr %9, align 8, !dbg !3798
  %116 = getelementptr inbounds nuw %struct._grs_bitmap, ptr %115, i32 0, i32 2, !dbg !3799
  %117 = load i16, ptr %116, align 4, !dbg !3799
  %118 = sext i16 %117 to i32, !dbg !3798
  %119 = mul nsw i32 %114, %118, !dbg !3800
  %120 = load i32, ptr %11, align 4, !dbg !3801
  %121 = add nsw i32 %119, %120, !dbg !3802
  %122 = sext i32 %121 to i64, !dbg !3795
  %123 = getelementptr inbounds i8, ptr %113, i64 %122, !dbg !3795
  %124 = load i8, ptr %123, align 1, !dbg !3795
  %125 = zext i8 %124 to i32, !dbg !3795
  %126 = icmp eq i32 %125, 255, !dbg !3803
  %127 = zext i1 %126 to i32, !dbg !3804
  ret i32 %127, !dbg !3805
}

; Function Attrs: mustprogress noinline ssp uwtable(sync)
define void @_Z16find_hitpoint_uvPiS_S_P10vms_vectorP7segmentii(ptr noundef %0, ptr noundef %1, ptr noundef %2, ptr noundef %3, ptr noundef %4, i32 noundef %5, i32 noundef %6) #2 !dbg !3806 {
  %8 = alloca ptr, align 8
  %9 = alloca ptr, align 8
  %10 = alloca ptr, align 8
  %11 = alloca ptr, align 8
  %12 = alloca ptr, align 8
  %13 = alloca i32, align 4
  %14 = alloca i32, align 4
  %15 = alloca ptr, align 8
  %16 = alloca %struct.vms_vector_array, align 4
  %17 = alloca i32, align 4
  %18 = alloca i32, align 4
  %19 = alloca i32, align 4
  %20 = alloca i32, align 4
  %21 = alloca i32, align 4
  %22 = alloca ptr, align 8
  %23 = alloca [6 x i32], align 4
  %24 = alloca [6 x i32], align 4
  %25 = alloca %struct.vec2d, align 4
  %26 = alloca %struct.vec2d, align 4
  %27 = alloca %struct.vec2d, align 4
  %28 = alloca %struct.vec2d, align 4
  %29 = alloca [3 x %struct.uvl], align 4
  %30 = alloca i32, align 4
  %31 = alloca i32, align 4
  %32 = alloca i32, align 4
  store ptr %0, ptr %8, align 8
    #dbg_declare(ptr %8, !3809, !DIExpression(), !3810)
  store ptr %1, ptr %9, align 8
    #dbg_declare(ptr %9, !3811, !DIExpression(), !3812)
  store ptr %2, ptr %10, align 8
    #dbg_declare(ptr %10, !3813, !DIExpression(), !3814)
  store ptr %3, ptr %11, align 8
    #dbg_declare(ptr %11, !3815, !DIExpression(), !3816)
  store ptr %4, ptr %12, align 8
    #dbg_declare(ptr %12, !3817, !DIExpression(), !3818)
  store i32 %5, ptr %13, align 4
    #dbg_declare(ptr %13, !3819, !DIExpression(), !3820)
  store i32 %6, ptr %14, align 4
    #dbg_declare(ptr %14, !3821, !DIExpression(), !3822)
    #dbg_declare(ptr %15, !3823, !DIExpression(), !3824)
    #dbg_declare(ptr %16, !3825, !DIExpression(), !3826)
    #dbg_declare(ptr %17, !3827, !DIExpression(), !3828)
  %33 = load ptr, ptr %12, align 8, !dbg !3829
  %34 = ptrtoint ptr %33 to i64, !dbg !3830
  %35 = sub i64 %34, ptrtoint (ptr @Segments to i64), !dbg !3830
  %36 = sdiv exact i64 %35, 512, !dbg !3830
  %37 = trunc i64 %36 to i32, !dbg !3829
  store i32 %37, ptr %17, align 4, !dbg !3828
    #dbg_declare(ptr %18, !3831, !DIExpression(), !3832)
    #dbg_declare(ptr %19, !3833, !DIExpression(), !3834)
    #dbg_declare(ptr %20, !3835, !DIExpression(), !3836)
    #dbg_declare(ptr %21, !3837, !DIExpression(), !3838)
    #dbg_declare(ptr %22, !3839, !DIExpression(), !3840)
  %38 = load ptr, ptr %12, align 8, !dbg !3841
  %39 = getelementptr inbounds nuw %struct.segment, ptr %38, i32 0, i32 0, !dbg !3842
  %40 = load i32, ptr %13, align 4, !dbg !3843
  %41 = sext i32 %40 to i64, !dbg !3841
  %42 = getelementptr inbounds [6 x %struct.side], ptr %39, i64 0, i64 %41, !dbg !3841
  store ptr %42, ptr %22, align 8, !dbg !3840
    #dbg_declare(ptr %23, !3844, !DIExpression(), !3845)
    #dbg_declare(ptr %24, !3846, !DIExpression(), !3847)
    #dbg_declare(ptr %25, !3848, !DIExpression(), !3849)
    #dbg_declare(ptr %26, !3850, !DIExpression(), !3851)
    #dbg_declare(ptr %27, !3852, !DIExpression(), !3853)
    #dbg_declare(ptr %28, !3854, !DIExpression(), !3855)
    #dbg_declare(ptr %29, !3856, !DIExpression(), !3858)
    #dbg_declare(ptr %30, !3859, !DIExpression(), !3860)
    #dbg_declare(ptr %31, !3861, !DIExpression(), !3862)
    #dbg_declare(ptr %32, !3863, !DIExpression(), !3864)
  %43 = load i32, ptr %17, align 4, !dbg !3865
  %44 = icmp slt i32 %43, 0, !dbg !3867
  br i1 %44, label %49, label %45, !dbg !3868

45:                                               ; preds = %7
  %46 = load i32, ptr %17, align 4, !dbg !3869
  %47 = load i32, ptr @Highest_segment_index, align 4, !dbg !3870
  %48 = icmp sgt i32 %46, %47, !dbg !3871
  br i1 %48, label %49, label %53, !dbg !3868

49:                                               ; preds = %45, %7
  %50 = load i32, ptr %17, align 4, !dbg !3872
  call void (i32, ptr, ...) @_Z8_mprintfiPKcz(i32 noundef 0, ptr noundef @.str.9, i32 noundef %50), !dbg !3872
  %51 = load ptr, ptr %9, align 8, !dbg !3874
  store i32 0, ptr %51, align 4, !dbg !3875
  %52 = load ptr, ptr %8, align 8, !dbg !3876
  store i32 0, ptr %52, align 4, !dbg !3877
  br label %369, !dbg !3878

53:                                               ; preds = %45
  %54 = load i32, ptr %17, align 4, !dbg !3879
  %55 = icmp eq i32 %54, -1, !dbg !3881
  br i1 %55, label %56, label %57, !dbg !3881

56:                                               ; preds = %53
  call void (ptr, ...) @_Z5ErrorPKcz(ptr noundef @.str.10), !dbg !3882
  br label %57, !dbg !3882

57:                                               ; preds = %56, %53
  %58 = getelementptr inbounds [6 x i32], ptr %23, i64 0, i64 0, !dbg !3883
  %59 = load i32, ptr %17, align 4, !dbg !3884
  %60 = load i32, ptr %13, align 4, !dbg !3885
  call void @_Z23create_abs_vertex_listsPiS_ii(ptr noundef %18, ptr noundef %58, i32 noundef %59, i32 noundef %60), !dbg !3886
  %61 = getelementptr inbounds [6 x i32], ptr %24, i64 0, i64 0, !dbg !3887
  %62 = load i32, ptr %17, align 4, !dbg !3888
  %63 = load i32, ptr %13, align 4, !dbg !3889
  call void @_Z24create_all_vertnum_listsPiS_ii(ptr noundef %18, ptr noundef %61, i32 noundef %62, i32 noundef %63), !dbg !3890
  %64 = load ptr, ptr %22, align 8, !dbg !3891
  %65 = getelementptr inbounds nuw %struct.side, ptr %64, i32 0, i32 6, !dbg !3892
  %66 = load i32, ptr %14, align 4, !dbg !3893
  %67 = sext i32 %66 to i64, !dbg !3891
  %68 = getelementptr inbounds [2 x %struct.vms_vector], ptr %65, i64 0, i64 %67, !dbg !3891
  call void @llvm.memcpy.p0.p0.i64(ptr align 4 %16, ptr align 4 %68, i64 12, i1 false), !dbg !3894
  store i32 0, ptr %19, align 4, !dbg !3895
  %69 = getelementptr inbounds nuw %struct.vms_vector_array, ptr %16, i32 0, i32 0, !dbg !3896
  %70 = getelementptr inbounds [3 x i32], ptr %69, i64 0, i64 1, !dbg !3898
  %71 = load i32, ptr %70, align 4, !dbg !3898
  %72 = call i32 @llvm.abs.i32(i32 %71, i1 true), !dbg !3899
  %73 = getelementptr inbounds nuw %struct.vms_vector_array, ptr %16, i32 0, i32 0, !dbg !3900
  %74 = load i32, ptr %19, align 4, !dbg !3901
  %75 = sext i32 %74 to i64, !dbg !3902
  %76 = getelementptr inbounds [3 x i32], ptr %73, i64 0, i64 %75, !dbg !3902
  %77 = load i32, ptr %76, align 4, !dbg !3902
  %78 = call i32 @llvm.abs.i32(i32 %77, i1 true), !dbg !3903
  %79 = icmp sgt i32 %72, %78, !dbg !3904
  br i1 %79, label %80, label %81, !dbg !3904

80:                                               ; preds = %57
  store i32 1, ptr %19, align 4, !dbg !3905
  br label %81, !dbg !3906

81:                                               ; preds = %80, %57
  %82 = getelementptr inbounds nuw %struct.vms_vector_array, ptr %16, i32 0, i32 0, !dbg !3907
  %83 = getelementptr inbounds [3 x i32], ptr %82, i64 0, i64 2, !dbg !3909
  %84 = load i32, ptr %83, align 4, !dbg !3909
  %85 = call i32 @llvm.abs.i32(i32 %84, i1 true), !dbg !3910
  %86 = getelementptr inbounds nuw %struct.vms_vector_array, ptr %16, i32 0, i32 0, !dbg !3911
  %87 = load i32, ptr %19, align 4, !dbg !3912
  %88 = sext i32 %87 to i64, !dbg !3913
  %89 = getelementptr inbounds [3 x i32], ptr %86, i64 0, i64 %88, !dbg !3913
  %90 = load i32, ptr %89, align 4, !dbg !3913
  %91 = call i32 @llvm.abs.i32(i32 %90, i1 true), !dbg !3914
  %92 = icmp sgt i32 %85, %91, !dbg !3915
  br i1 %92, label %93, label %94, !dbg !3915

93:                                               ; preds = %81
  store i32 2, ptr %19, align 4, !dbg !3916
  br label %94, !dbg !3917

94:                                               ; preds = %93, %81
  %95 = load i32, ptr %19, align 4, !dbg !3918
  %96 = icmp eq i32 %95, 0, !dbg !3920
  br i1 %96, label %97, label %98, !dbg !3920

97:                                               ; preds = %94
  store i32 1, ptr %20, align 4, !dbg !3921
  br label %99, !dbg !3922

98:                                               ; preds = %94
  store i32 0, ptr %20, align 4, !dbg !3923
  br label %99

99:                                               ; preds = %98, %97
  %100 = load i32, ptr %19, align 4, !dbg !3924
  %101 = icmp eq i32 %100, 2, !dbg !3926
  br i1 %101, label %102, label %103, !dbg !3926

102:                                              ; preds = %99
  store i32 1, ptr %21, align 4, !dbg !3927
  br label %104, !dbg !3928

103:                                              ; preds = %99
  store i32 2, ptr %21, align 4, !dbg !3929
  br label %104

104:                                              ; preds = %103, %102
  %105 = load i32, ptr %14, align 4, !dbg !3930
  %106 = mul nsw i32 %105, 3, !dbg !3931
  %107 = add nsw i32 %106, 1, !dbg !3932
  %108 = sext i32 %107 to i64, !dbg !3933
  %109 = getelementptr inbounds [6 x i32], ptr %23, i64 0, i64 %108, !dbg !3933
  %110 = load i32, ptr %109, align 4, !dbg !3933
  %111 = sext i32 %110 to i64, !dbg !3934
  %112 = getelementptr inbounds [0 x %struct.vms_vector], ptr @Vertices, i64 0, i64 %111, !dbg !3934
  store ptr %112, ptr %15, align 8, !dbg !3935
  %113 = load ptr, ptr %15, align 8, !dbg !3936
  %114 = getelementptr inbounds nuw %struct.vms_vector_array, ptr %113, i32 0, i32 0, !dbg !3937
  %115 = load i32, ptr %20, align 4, !dbg !3938
  %116 = sext i32 %115 to i64, !dbg !3936
  %117 = getelementptr inbounds [3 x i32], ptr %114, i64 0, i64 %116, !dbg !3936
  %118 = load i32, ptr %117, align 4, !dbg !3936
  %119 = getelementptr inbounds nuw %struct.vec2d, ptr %25, i32 0, i32 0, !dbg !3939
  store i32 %118, ptr %119, align 4, !dbg !3940
  %120 = load ptr, ptr %15, align 8, !dbg !3941
  %121 = getelementptr inbounds nuw %struct.vms_vector_array, ptr %120, i32 0, i32 0, !dbg !3942
  %122 = load i32, ptr %21, align 4, !dbg !3943
  %123 = sext i32 %122 to i64, !dbg !3941
  %124 = getelementptr inbounds [3 x i32], ptr %121, i64 0, i64 %123, !dbg !3941
  %125 = load i32, ptr %124, align 4, !dbg !3941
  %126 = getelementptr inbounds nuw %struct.vec2d, ptr %25, i32 0, i32 1, !dbg !3944
  store i32 %125, ptr %126, align 4, !dbg !3945
  %127 = load i32, ptr %14, align 4, !dbg !3946
  %128 = mul nsw i32 %127, 3, !dbg !3947
  %129 = add nsw i32 %128, 0, !dbg !3948
  %130 = sext i32 %129 to i64, !dbg !3949
  %131 = getelementptr inbounds [6 x i32], ptr %23, i64 0, i64 %130, !dbg !3949
  %132 = load i32, ptr %131, align 4, !dbg !3949
  %133 = sext i32 %132 to i64, !dbg !3950
  %134 = getelementptr inbounds [0 x %struct.vms_vector], ptr @Vertices, i64 0, i64 %133, !dbg !3950
  store ptr %134, ptr %15, align 8, !dbg !3951
  %135 = load ptr, ptr %15, align 8, !dbg !3952
  %136 = getelementptr inbounds nuw %struct.vms_vector_array, ptr %135, i32 0, i32 0, !dbg !3953
  %137 = load i32, ptr %20, align 4, !dbg !3954
  %138 = sext i32 %137 to i64, !dbg !3952
  %139 = getelementptr inbounds [3 x i32], ptr %136, i64 0, i64 %138, !dbg !3952
  %140 = load i32, ptr %139, align 4, !dbg !3952
  %141 = getelementptr inbounds nuw %struct.vec2d, ptr %25, i32 0, i32 0, !dbg !3955
  %142 = load i32, ptr %141, align 4, !dbg !3955
  %143 = sub nsw i32 %140, %142, !dbg !3956
  %144 = getelementptr inbounds nuw %struct.vec2d, ptr %26, i32 0, i32 0, !dbg !3957
  store i32 %143, ptr %144, align 4, !dbg !3958
  %145 = load ptr, ptr %15, align 8, !dbg !3959
  %146 = getelementptr inbounds nuw %struct.vms_vector_array, ptr %145, i32 0, i32 0, !dbg !3960
  %147 = load i32, ptr %21, align 4, !dbg !3961
  %148 = sext i32 %147 to i64, !dbg !3959
  %149 = getelementptr inbounds [3 x i32], ptr %146, i64 0, i64 %148, !dbg !3959
  %150 = load i32, ptr %149, align 4, !dbg !3959
  %151 = getelementptr inbounds nuw %struct.vec2d, ptr %25, i32 0, i32 1, !dbg !3962
  %152 = load i32, ptr %151, align 4, !dbg !3962
  %153 = sub nsw i32 %150, %152, !dbg !3963
  %154 = getelementptr inbounds nuw %struct.vec2d, ptr %26, i32 0, i32 1, !dbg !3964
  store i32 %153, ptr %154, align 4, !dbg !3965
  %155 = load i32, ptr %14, align 4, !dbg !3966
  %156 = mul nsw i32 %155, 3, !dbg !3967
  %157 = add nsw i32 %156, 2, !dbg !3968
  %158 = sext i32 %157 to i64, !dbg !3969
  %159 = getelementptr inbounds [6 x i32], ptr %23, i64 0, i64 %158, !dbg !3969
  %160 = load i32, ptr %159, align 4, !dbg !3969
  %161 = sext i32 %160 to i64, !dbg !3970
  %162 = getelementptr inbounds [0 x %struct.vms_vector], ptr @Vertices, i64 0, i64 %161, !dbg !3970
  store ptr %162, ptr %15, align 8, !dbg !3971
  %163 = load ptr, ptr %15, align 8, !dbg !3972
  %164 = getelementptr inbounds nuw %struct.vms_vector_array, ptr %163, i32 0, i32 0, !dbg !3973
  %165 = load i32, ptr %20, align 4, !dbg !3974
  %166 = sext i32 %165 to i64, !dbg !3972
  %167 = getelementptr inbounds [3 x i32], ptr %164, i64 0, i64 %166, !dbg !3972
  %168 = load i32, ptr %167, align 4, !dbg !3972
  %169 = getelementptr inbounds nuw %struct.vec2d, ptr %25, i32 0, i32 0, !dbg !3975
  %170 = load i32, ptr %169, align 4, !dbg !3975
  %171 = sub nsw i32 %168, %170, !dbg !3976
  %172 = getelementptr inbounds nuw %struct.vec2d, ptr %27, i32 0, i32 0, !dbg !3977
  store i32 %171, ptr %172, align 4, !dbg !3978
  %173 = load ptr, ptr %15, align 8, !dbg !3979
  %174 = getelementptr inbounds nuw %struct.vms_vector_array, ptr %173, i32 0, i32 0, !dbg !3980
  %175 = load i32, ptr %21, align 4, !dbg !3981
  %176 = sext i32 %175 to i64, !dbg !3979
  %177 = getelementptr inbounds [3 x i32], ptr %174, i64 0, i64 %176, !dbg !3979
  %178 = load i32, ptr %177, align 4, !dbg !3979
  %179 = getelementptr inbounds nuw %struct.vec2d, ptr %25, i32 0, i32 1, !dbg !3982
  %180 = load i32, ptr %179, align 4, !dbg !3982
  %181 = sub nsw i32 %178, %180, !dbg !3983
  %182 = getelementptr inbounds nuw %struct.vec2d, ptr %27, i32 0, i32 1, !dbg !3984
  store i32 %181, ptr %182, align 4, !dbg !3985
  %183 = load ptr, ptr %11, align 8, !dbg !3986
  store ptr %183, ptr %15, align 8, !dbg !3987
  %184 = load ptr, ptr %15, align 8, !dbg !3988
  %185 = getelementptr inbounds nuw %struct.vms_vector_array, ptr %184, i32 0, i32 0, !dbg !3989
  %186 = load i32, ptr %20, align 4, !dbg !3990
  %187 = sext i32 %186 to i64, !dbg !3988
  %188 = getelementptr inbounds [3 x i32], ptr %185, i64 0, i64 %187, !dbg !3988
  %189 = load i32, ptr %188, align 4, !dbg !3988
  %190 = getelementptr inbounds nuw %struct.vec2d, ptr %28, i32 0, i32 0, !dbg !3991
  store i32 %189, ptr %190, align 4, !dbg !3992
  %191 = load ptr, ptr %15, align 8, !dbg !3993
  %192 = getelementptr inbounds nuw %struct.vms_vector_array, ptr %191, i32 0, i32 0, !dbg !3994
  %193 = load i32, ptr %21, align 4, !dbg !3995
  %194 = sext i32 %193 to i64, !dbg !3993
  %195 = getelementptr inbounds [3 x i32], ptr %192, i64 0, i64 %194, !dbg !3993
  %196 = load i32, ptr %195, align 4, !dbg !3993
  %197 = getelementptr inbounds nuw %struct.vec2d, ptr %28, i32 0, i32 1, !dbg !3996
  store i32 %196, ptr %197, align 4, !dbg !3997
  %198 = getelementptr inbounds nuw %struct.vec2d, ptr %28, i32 0, i32 0, !dbg !3998
  %199 = load i32, ptr %198, align 4, !dbg !3998
  %200 = getelementptr inbounds nuw %struct.vec2d, ptr %26, i32 0, i32 1, !dbg !3998
  %201 = load i32, ptr %200, align 4, !dbg !3998
  %202 = call noundef i32 @_Z6fixmulii(i32 noundef %199, i32 noundef %201), !dbg !3998
  %203 = getelementptr inbounds nuw %struct.vec2d, ptr %28, i32 0, i32 1, !dbg !3998
  %204 = load i32, ptr %203, align 4, !dbg !3998
  %205 = getelementptr inbounds nuw %struct.vec2d, ptr %26, i32 0, i32 0, !dbg !3998
  %206 = load i32, ptr %205, align 4, !dbg !3998
  %207 = call noundef i32 @_Z6fixmulii(i32 noundef %204, i32 noundef %206), !dbg !3998
  %208 = sub nsw i32 %202, %207, !dbg !3998
  %209 = getelementptr inbounds nuw %struct.vec2d, ptr %26, i32 0, i32 0, !dbg !3999
  %210 = load i32, ptr %209, align 4, !dbg !3999
  %211 = getelementptr inbounds nuw %struct.vec2d, ptr %25, i32 0, i32 1, !dbg !3999
  %212 = load i32, ptr %211, align 4, !dbg !3999
  %213 = call noundef i32 @_Z6fixmulii(i32 noundef %210, i32 noundef %212), !dbg !3999
  %214 = getelementptr inbounds nuw %struct.vec2d, ptr %26, i32 0, i32 1, !dbg !3999
  %215 = load i32, ptr %214, align 4, !dbg !3999
  %216 = getelementptr inbounds nuw %struct.vec2d, ptr %25, i32 0, i32 0, !dbg !3999
  %217 = load i32, ptr %216, align 4, !dbg !3999
  %218 = call noundef i32 @_Z6fixmulii(i32 noundef %215, i32 noundef %217), !dbg !3999
  %219 = sub nsw i32 %213, %218, !dbg !3999
  %220 = add nsw i32 %208, %219, !dbg !4000
  %221 = getelementptr inbounds nuw %struct.vec2d, ptr %26, i32 0, i32 0, !dbg !4001
  %222 = load i32, ptr %221, align 4, !dbg !4001
  %223 = getelementptr inbounds nuw %struct.vec2d, ptr %27, i32 0, i32 1, !dbg !4001
  %224 = load i32, ptr %223, align 4, !dbg !4001
  %225 = call noundef i32 @_Z6fixmulii(i32 noundef %222, i32 noundef %224), !dbg !4001
  %226 = getelementptr inbounds nuw %struct.vec2d, ptr %26, i32 0, i32 1, !dbg !4001
  %227 = load i32, ptr %226, align 4, !dbg !4001
  %228 = getelementptr inbounds nuw %struct.vec2d, ptr %27, i32 0, i32 0, !dbg !4001
  %229 = load i32, ptr %228, align 4, !dbg !4001
  %230 = call noundef i32 @_Z6fixmulii(i32 noundef %227, i32 noundef %229), !dbg !4001
  %231 = sub nsw i32 %225, %230, !dbg !4001
  %232 = call noundef i32 @_Z6fixdivii(i32 noundef %220, i32 noundef %231), !dbg !4002
  %233 = sub nsw i32 0, %232, !dbg !4003
  store i32 %233, ptr %31, align 4, !dbg !4004
  %234 = getelementptr inbounds nuw %struct.vec2d, ptr %26, i32 0, i32 0, !dbg !4005
  %235 = load i32, ptr %234, align 4, !dbg !4005
  %236 = call i32 @llvm.abs.i32(i32 %235, i1 true), !dbg !4007
  %237 = getelementptr inbounds nuw %struct.vec2d, ptr %26, i32 0, i32 1, !dbg !4008
  %238 = load i32, ptr %237, align 4, !dbg !4008
  %239 = call i32 @llvm.abs.i32(i32 %238, i1 true), !dbg !4009
  %240 = icmp sgt i32 %236, %239, !dbg !4010
  br i1 %240, label %241, label %256, !dbg !4010

241:                                              ; preds = %104
  %242 = load i32, ptr %31, align 4, !dbg !4011
  %243 = sub nsw i32 0, %242, !dbg !4012
  %244 = getelementptr inbounds nuw %struct.vec2d, ptr %27, i32 0, i32 0, !dbg !4013
  %245 = load i32, ptr %244, align 4, !dbg !4013
  %246 = call noundef i32 @_Z6fixmulii(i32 noundef %243, i32 noundef %245), !dbg !4014
  %247 = getelementptr inbounds nuw %struct.vec2d, ptr %28, i32 0, i32 0, !dbg !4015
  %248 = load i32, ptr %247, align 4, !dbg !4015
  %249 = add nsw i32 %246, %248, !dbg !4016
  %250 = getelementptr inbounds nuw %struct.vec2d, ptr %25, i32 0, i32 0, !dbg !4017
  %251 = load i32, ptr %250, align 4, !dbg !4017
  %252 = sub nsw i32 %249, %251, !dbg !4018
  %253 = getelementptr inbounds nuw %struct.vec2d, ptr %26, i32 0, i32 0, !dbg !4019
  %254 = load i32, ptr %253, align 4, !dbg !4019
  %255 = call noundef i32 @_Z6fixdivii(i32 noundef %252, i32 noundef %254), !dbg !4020
  store i32 %255, ptr %30, align 4, !dbg !4021
  br label %271, !dbg !4022

256:                                              ; preds = %104
  %257 = load i32, ptr %31, align 4, !dbg !4023
  %258 = sub nsw i32 0, %257, !dbg !4024
  %259 = getelementptr inbounds nuw %struct.vec2d, ptr %27, i32 0, i32 1, !dbg !4025
  %260 = load i32, ptr %259, align 4, !dbg !4025
  %261 = call noundef i32 @_Z6fixmulii(i32 noundef %258, i32 noundef %260), !dbg !4026
  %262 = getelementptr inbounds nuw %struct.vec2d, ptr %28, i32 0, i32 1, !dbg !4027
  %263 = load i32, ptr %262, align 4, !dbg !4027
  %264 = add nsw i32 %261, %263, !dbg !4028
  %265 = getelementptr inbounds nuw %struct.vec2d, ptr %25, i32 0, i32 1, !dbg !4029
  %266 = load i32, ptr %265, align 4, !dbg !4029
  %267 = sub nsw i32 %264, %266, !dbg !4030
  %268 = getelementptr inbounds nuw %struct.vec2d, ptr %26, i32 0, i32 1, !dbg !4031
  %269 = load i32, ptr %268, align 4, !dbg !4031
  %270 = call noundef i32 @_Z6fixdivii(i32 noundef %267, i32 noundef %269), !dbg !4032
  store i32 %270, ptr %30, align 4, !dbg !4033
  br label %271

271:                                              ; preds = %256, %241
  store i32 0, ptr %32, align 4, !dbg !4034
  br label %272, !dbg !4036

272:                                              ; preds = %290, %271
  %273 = load i32, ptr %32, align 4, !dbg !4037
  %274 = icmp slt i32 %273, 3, !dbg !4039
  br i1 %274, label %275, label %293, !dbg !4040

275:                                              ; preds = %272
  %276 = load ptr, ptr %22, align 8, !dbg !4041
  %277 = getelementptr inbounds nuw %struct.side, ptr %276, i32 0, i32 5, !dbg !4042
  %278 = load i32, ptr %14, align 4, !dbg !4043
  %279 = mul nsw i32 %278, 3, !dbg !4044
  %280 = load i32, ptr %32, align 4, !dbg !4045
  %281 = add nsw i32 %279, %280, !dbg !4046
  %282 = sext i32 %281 to i64, !dbg !4047
  %283 = getelementptr inbounds [6 x i32], ptr %24, i64 0, i64 %282, !dbg !4047
  %284 = load i32, ptr %283, align 4, !dbg !4047
  %285 = sext i32 %284 to i64, !dbg !4041
  %286 = getelementptr inbounds [4 x %struct.uvl], ptr %277, i64 0, i64 %285, !dbg !4041
  %287 = load i32, ptr %32, align 4, !dbg !4048
  %288 = sext i32 %287 to i64, !dbg !4049
  %289 = getelementptr inbounds [3 x %struct.uvl], ptr %29, i64 0, i64 %288, !dbg !4049
  call void @llvm.memcpy.p0.p0.i64(ptr align 4 %289, ptr align 4 %286, i64 12, i1 false), !dbg !4050
  br label %290, !dbg !4049

290:                                              ; preds = %275
  %291 = load i32, ptr %32, align 4, !dbg !4051
  %292 = add nsw i32 %291, 1, !dbg !4051
  store i32 %292, ptr %32, align 4, !dbg !4051
  br label %272, !dbg !4052, !llvm.loop !4053

293:                                              ; preds = %272
  %294 = getelementptr inbounds [3 x %struct.uvl], ptr %29, i64 0, i64 1, !dbg !4055
  %295 = getelementptr inbounds nuw %struct.uvl, ptr %294, i32 0, i32 0, !dbg !4056
  %296 = load i32, ptr %295, align 4, !dbg !4056
  %297 = load i32, ptr %30, align 4, !dbg !4057
  %298 = getelementptr inbounds [3 x %struct.uvl], ptr %29, i64 0, i64 0, !dbg !4058
  %299 = getelementptr inbounds nuw %struct.uvl, ptr %298, i32 0, i32 0, !dbg !4059
  %300 = load i32, ptr %299, align 4, !dbg !4059
  %301 = getelementptr inbounds [3 x %struct.uvl], ptr %29, i64 0, i64 1, !dbg !4060
  %302 = getelementptr inbounds nuw %struct.uvl, ptr %301, i32 0, i32 0, !dbg !4061
  %303 = load i32, ptr %302, align 4, !dbg !4061
  %304 = sub nsw i32 %300, %303, !dbg !4062
  %305 = call noundef i32 @_Z6fixmulii(i32 noundef %297, i32 noundef %304), !dbg !4063
  %306 = add nsw i32 %296, %305, !dbg !4064
  %307 = load i32, ptr %31, align 4, !dbg !4065
  %308 = getelementptr inbounds [3 x %struct.uvl], ptr %29, i64 0, i64 2, !dbg !4066
  %309 = getelementptr inbounds nuw %struct.uvl, ptr %308, i32 0, i32 0, !dbg !4067
  %310 = load i32, ptr %309, align 4, !dbg !4067
  %311 = getelementptr inbounds [3 x %struct.uvl], ptr %29, i64 0, i64 1, !dbg !4068
  %312 = getelementptr inbounds nuw %struct.uvl, ptr %311, i32 0, i32 0, !dbg !4069
  %313 = load i32, ptr %312, align 4, !dbg !4069
  %314 = sub nsw i32 %310, %313, !dbg !4070
  %315 = call noundef i32 @_Z6fixmulii(i32 noundef %307, i32 noundef %314), !dbg !4071
  %316 = add nsw i32 %306, %315, !dbg !4072
  %317 = load ptr, ptr %8, align 8, !dbg !4073
  store i32 %316, ptr %317, align 4, !dbg !4074
  %318 = getelementptr inbounds [3 x %struct.uvl], ptr %29, i64 0, i64 1, !dbg !4075
  %319 = getelementptr inbounds nuw %struct.uvl, ptr %318, i32 0, i32 1, !dbg !4076
  %320 = load i32, ptr %319, align 4, !dbg !4076
  %321 = load i32, ptr %30, align 4, !dbg !4077
  %322 = getelementptr inbounds [3 x %struct.uvl], ptr %29, i64 0, i64 0, !dbg !4078
  %323 = getelementptr inbounds nuw %struct.uvl, ptr %322, i32 0, i32 1, !dbg !4079
  %324 = load i32, ptr %323, align 4, !dbg !4079
  %325 = getelementptr inbounds [3 x %struct.uvl], ptr %29, i64 0, i64 1, !dbg !4080
  %326 = getelementptr inbounds nuw %struct.uvl, ptr %325, i32 0, i32 1, !dbg !4081
  %327 = load i32, ptr %326, align 4, !dbg !4081
  %328 = sub nsw i32 %324, %327, !dbg !4082
  %329 = call noundef i32 @_Z6fixmulii(i32 noundef %321, i32 noundef %328), !dbg !4083
  %330 = add nsw i32 %320, %329, !dbg !4084
  %331 = load i32, ptr %31, align 4, !dbg !4085
  %332 = getelementptr inbounds [3 x %struct.uvl], ptr %29, i64 0, i64 2, !dbg !4086
  %333 = getelementptr inbounds nuw %struct.uvl, ptr %332, i32 0, i32 1, !dbg !4087
  %334 = load i32, ptr %333, align 4, !dbg !4087
  %335 = getelementptr inbounds [3 x %struct.uvl], ptr %29, i64 0, i64 1, !dbg !4088
  %336 = getelementptr inbounds nuw %struct.uvl, ptr %335, i32 0, i32 1, !dbg !4089
  %337 = load i32, ptr %336, align 4, !dbg !4089
  %338 = sub nsw i32 %334, %337, !dbg !4090
  %339 = call noundef i32 @_Z6fixmulii(i32 noundef %331, i32 noundef %338), !dbg !4091
  %340 = add nsw i32 %330, %339, !dbg !4092
  %341 = load ptr, ptr %9, align 8, !dbg !4093
  store i32 %340, ptr %341, align 4, !dbg !4094
  %342 = load ptr, ptr %10, align 8, !dbg !4095
  %343 = icmp ne ptr %342, null, !dbg !4095
  br i1 %343, label %344, label %369, !dbg !4095

344:                                              ; preds = %293
  %345 = getelementptr inbounds [3 x %struct.uvl], ptr %29, i64 0, i64 1, !dbg !4097
  %346 = getelementptr inbounds nuw %struct.uvl, ptr %345, i32 0, i32 2, !dbg !4098
  %347 = load i32, ptr %346, align 4, !dbg !4098
  %348 = load i32, ptr %30, align 4, !dbg !4099
  %349 = getelementptr inbounds [3 x %struct.uvl], ptr %29, i64 0, i64 0, !dbg !4100
  %350 = getelementptr inbounds nuw %struct.uvl, ptr %349, i32 0, i32 2, !dbg !4101
  %351 = load i32, ptr %350, align 4, !dbg !4101
  %352 = getelementptr inbounds [3 x %struct.uvl], ptr %29, i64 0, i64 1, !dbg !4102
  %353 = getelementptr inbounds nuw %struct.uvl, ptr %352, i32 0, i32 2, !dbg !4103
  %354 = load i32, ptr %353, align 4, !dbg !4103
  %355 = sub nsw i32 %351, %354, !dbg !4104
  %356 = call noundef i32 @_Z6fixmulii(i32 noundef %348, i32 noundef %355), !dbg !4105
  %357 = add nsw i32 %347, %356, !dbg !4106
  %358 = load i32, ptr %31, align 4, !dbg !4107
  %359 = getelementptr inbounds [3 x %struct.uvl], ptr %29, i64 0, i64 2, !dbg !4108
  %360 = getelementptr inbounds nuw %struct.uvl, ptr %359, i32 0, i32 2, !dbg !4109
  %361 = load i32, ptr %360, align 4, !dbg !4109
  %362 = getelementptr inbounds [3 x %struct.uvl], ptr %29, i64 0, i64 1, !dbg !4110
  %363 = getelementptr inbounds nuw %struct.uvl, ptr %362, i32 0, i32 2, !dbg !4111
  %364 = load i32, ptr %363, align 4, !dbg !4111
  %365 = sub nsw i32 %361, %364, !dbg !4112
  %366 = call noundef i32 @_Z6fixmulii(i32 noundef %358, i32 noundef %365), !dbg !4113
  %367 = add nsw i32 %357, %366, !dbg !4114
  %368 = load ptr, ptr %10, align 8, !dbg !4115
  store i32 %367, ptr %368, align 4, !dbg !4116
  br label %369, !dbg !4117

369:                                              ; preds = %49, %344, %293
  ret void, !dbg !4118
}

declare void @_Z8_mprintfiPKcz(i32 noundef, ptr noundef, ...) #3

declare void @_Z24create_all_vertnum_listsPiS_ii(ptr noundef, ptr noundef, i32 noundef, i32 noundef) #3

declare noundef ptr @_Z26texmerge_get_cached_bitmapii(i32 noundef, i32 noundef) #3

declare void @_Z20piggy_bitmap_page_in12bitmap_index(i64) #3

declare noundef ptr @_Z18rle_expand_textureP11_grs_bitmap(ptr noundef) #3

; Function Attrs: mustprogress noinline nounwind ssp uwtable(sync)
define linkonce_odr noundef i32 @_Z3f2ii(i32 noundef %0) #0 !dbg !4119 {
  %2 = alloca i32, align 4
  store i32 %0, ptr %2, align 4
    #dbg_declare(ptr %2, !4122, !DIExpression(), !4123)
  %3 = load i32, ptr %2, align 4, !dbg !4124
  %4 = ashr i32 %3, 16, !dbg !4125
  ret i32 %4, !dbg !4126
}

; Function Attrs: mustprogress noinline ssp uwtable(sync)
define noundef i32 @_Z22sphere_intersects_wallP10vms_vectorii(ptr noundef %0, i32 noundef %1, i32 noundef %2) #2 !dbg !4127 {
  %4 = alloca i32, align 4
  %5 = alloca ptr, align 8
  %6 = alloca i32, align 4
  %7 = alloca i32, align 4
  %8 = alloca i32, align 4
  %9 = alloca ptr, align 8
  %10 = alloca %struct.segmasks, align 2
  %11 = alloca i32, align 4
  %12 = alloca i32, align 4
  %13 = alloca i32, align 4
  %14 = alloca i32, align 4
  %15 = alloca i32, align 4
  %16 = alloca [6 x i32], align 4
  %17 = alloca i32, align 4
  %18 = alloca i32, align 4
  store ptr %0, ptr %5, align 8
    #dbg_declare(ptr %5, !4130, !DIExpression(), !4131)
  store i32 %1, ptr %6, align 4
    #dbg_declare(ptr %6, !4132, !DIExpression(), !4133)
  store i32 %2, ptr %7, align 4
    #dbg_declare(ptr %7, !4134, !DIExpression(), !4135)
    #dbg_declare(ptr %8, !4136, !DIExpression(), !4137)
    #dbg_declare(ptr %9, !4138, !DIExpression(), !4139)
  %19 = load i32, ptr %6, align 4, !dbg !4140
  %20 = trunc i32 %19 to i16, !dbg !4140
  %21 = load i32, ptr @n_segs_visited, align 4, !dbg !4141
  %22 = add nsw i32 %21, 1, !dbg !4141
  store i32 %22, ptr @n_segs_visited, align 4, !dbg !4141
  %23 = sext i32 %21 to i64, !dbg !4142
  %24 = getelementptr inbounds [100 x i16], ptr @segs_visited, i64 0, i64 %23, !dbg !4142
  store i16 %20, ptr %24, align 2, !dbg !4143
  %25 = load ptr, ptr %5, align 8, !dbg !4144
  %26 = load i32, ptr %6, align 4, !dbg !4145
  %27 = load i32, ptr %7, align 4, !dbg !4146
  %28 = call i32 @_Z13get_seg_masksP10vms_vectorii(ptr noundef %25, i32 noundef %26, i32 noundef %27), !dbg !4147
  store i32 %28, ptr %10, align 2, !dbg !4147
  %29 = getelementptr inbounds nuw %struct.segmasks, ptr %10, i32 0, i32 0, !dbg !4148
  %30 = load i16, ptr %29, align 2, !dbg !4148
  %31 = sext i16 %30 to i32, !dbg !4147
  store i32 %31, ptr %8, align 4, !dbg !4149
  %32 = load i32, ptr %6, align 4, !dbg !4150
  %33 = sext i32 %32 to i64, !dbg !4151
  %34 = getelementptr inbounds [0 x %struct.segment], ptr @Segments, i64 0, i64 %33, !dbg !4151
  store ptr %34, ptr %9, align 8, !dbg !4152
  %35 = load i32, ptr %8, align 4, !dbg !4153
  %36 = icmp ne i32 %35, 0, !dbg !4155
  br i1 %36, label %37, label %143, !dbg !4155

37:                                               ; preds = %3
    #dbg_declare(ptr %11, !4156, !DIExpression(), !4158)
    #dbg_declare(ptr %12, !4159, !DIExpression(), !4160)
    #dbg_declare(ptr %13, !4161, !DIExpression(), !4162)
  store i32 0, ptr %11, align 4, !dbg !4163
  store i32 1, ptr %12, align 4, !dbg !4165
  br label %38, !dbg !4166

38:                                               ; preds = %139, %37
  %39 = load i32, ptr %11, align 4, !dbg !4167
  %40 = icmp slt i32 %39, 6, !dbg !4169
  br i1 %40, label %41, label %45, !dbg !4170

41:                                               ; preds = %38
  %42 = load i32, ptr %8, align 4, !dbg !4171
  %43 = load i32, ptr %12, align 4, !dbg !4172
  %44 = icmp sge i32 %42, %43, !dbg !4173
  br label %45

45:                                               ; preds = %41, %38
  %46 = phi i1 [ false, %38 ], [ %44, %41 ], !dbg !4174
  br i1 %46, label %47, label %142, !dbg !4175

47:                                               ; preds = %45
  store i32 0, ptr %13, align 4, !dbg !4176
  br label %48, !dbg !4179

48:                                               ; preds = %133, %47
  %49 = load i32, ptr %13, align 4, !dbg !4180
  %50 = icmp slt i32 %49, 2, !dbg !4182
  br i1 %50, label %51, label %138, !dbg !4183

51:                                               ; preds = %48
  %52 = load i32, ptr %8, align 4, !dbg !4184
  %53 = load i32, ptr %12, align 4, !dbg !4187
  %54 = and i32 %52, %53, !dbg !4188
  %55 = icmp ne i32 %54, 0, !dbg !4184
  br i1 %55, label %56, label %132, !dbg !4184

56:                                               ; preds = %51
    #dbg_declare(ptr %14, !4189, !DIExpression(), !4191)
    #dbg_declare(ptr %15, !4192, !DIExpression(), !4193)
    #dbg_declare(ptr %16, !4194, !DIExpression(), !4195)
  %57 = load ptr, ptr %9, align 8, !dbg !4196
  %58 = ptrtoint ptr %57 to i64, !dbg !4198
  %59 = sub i64 %58, ptrtoint (ptr @Segments to i64), !dbg !4198
  %60 = sdiv exact i64 %59, 512, !dbg !4198
  %61 = icmp eq i64 %60, -1, !dbg !4199
  br i1 %61, label %62, label %63, !dbg !4199

62:                                               ; preds = %56
  call void (ptr, ...) @_Z5ErrorPKcz(ptr noundef @.str.11), !dbg !4200
  br label %63, !dbg !4200

63:                                               ; preds = %62, %56
  %64 = getelementptr inbounds [6 x i32], ptr %16, i64 0, i64 0, !dbg !4201
  %65 = load ptr, ptr %9, align 8, !dbg !4202
  %66 = ptrtoint ptr %65 to i64, !dbg !4203
  %67 = sub i64 %66, ptrtoint (ptr @Segments to i64), !dbg !4203
  %68 = sdiv exact i64 %67, 512, !dbg !4203
  %69 = trunc i64 %68 to i32, !dbg !4202
  %70 = load i32, ptr %11, align 4, !dbg !4204
  call void @_Z23create_abs_vertex_listsPiS_ii(ptr noundef %15, ptr noundef %64, i32 noundef %69, i32 noundef %70), !dbg !4205
  %71 = load ptr, ptr %5, align 8, !dbg !4206
  %72 = load ptr, ptr %9, align 8, !dbg !4207
  %73 = getelementptr inbounds nuw %struct.segment, ptr %72, i32 0, i32 0, !dbg !4208
  %74 = load i32, ptr %11, align 4, !dbg !4209
  %75 = sext i32 %74 to i64, !dbg !4207
  %76 = getelementptr inbounds [6 x %struct.side], ptr %73, i64 0, i64 %75, !dbg !4207
  %77 = load i32, ptr %13, align 4, !dbg !4210
  %78 = load i32, ptr %15, align 4, !dbg !4211
  %79 = icmp eq i32 %78, 1, !dbg !4212
  %80 = zext i1 %79 to i64, !dbg !4213
  %81 = select i1 %79, i32 4, i32 3, !dbg !4213
  %82 = load i32, ptr %7, align 4, !dbg !4214
  %83 = getelementptr inbounds [6 x i32], ptr %16, i64 0, i64 0, !dbg !4215
  %84 = call noundef i32 @_Z20check_sphere_to_faceP10vms_vectorP4sideiiiPi(ptr noundef %71, ptr noundef %76, i32 noundef %77, i32 noundef %81, i32 noundef %82, ptr noundef %83), !dbg !4216
  store i32 %84, ptr %14, align 4, !dbg !4217
  %85 = load i32, ptr %14, align 4, !dbg !4218
  %86 = icmp ne i32 %85, 0, !dbg !4218
  br i1 %86, label %87, label %131, !dbg !4218

87:                                               ; preds = %63
    #dbg_declare(ptr %17, !4220, !DIExpression(), !4222)
    #dbg_declare(ptr %18, !4223, !DIExpression(), !4224)
  %88 = load ptr, ptr %9, align 8, !dbg !4225
  %89 = getelementptr inbounds nuw %struct.segment, ptr %88, i32 0, i32 1, !dbg !4226
  %90 = load i32, ptr %11, align 4, !dbg !4227
  %91 = sext i32 %90 to i64, !dbg !4225
  %92 = getelementptr inbounds [6 x i16], ptr %89, i64 0, i64 %91, !dbg !4225
  %93 = load i16, ptr %92, align 2, !dbg !4225
  %94 = sext i16 %93 to i32, !dbg !4225
  store i32 %94, ptr %17, align 4, !dbg !4228
  store i32 0, ptr %18, align 4, !dbg !4229
  br label %95, !dbg !4231

95:                                               ; preds = %110, %87
  %96 = load i32, ptr %18, align 4, !dbg !4232
  %97 = load i32, ptr @n_segs_visited, align 4, !dbg !4234
  %98 = icmp slt i32 %96, %97, !dbg !4235
  br i1 %98, label %99, label %107, !dbg !4236

99:                                               ; preds = %95
  %100 = load i32, ptr %17, align 4, !dbg !4237
  %101 = load i32, ptr %18, align 4, !dbg !4238
  %102 = sext i32 %101 to i64, !dbg !4239
  %103 = getelementptr inbounds [100 x i16], ptr @segs_visited, i64 0, i64 %102, !dbg !4239
  %104 = load i16, ptr %103, align 2, !dbg !4239
  %105 = sext i16 %104 to i32, !dbg !4239
  %106 = icmp ne i32 %100, %105, !dbg !4240
  br label %107

107:                                              ; preds = %99, %95
  %108 = phi i1 [ false, %95 ], [ %106, %99 ], !dbg !4241
  br i1 %108, label %109, label %113, !dbg !4242

109:                                              ; preds = %107
  br label %110, !dbg !4242

110:                                              ; preds = %109
  %111 = load i32, ptr %18, align 4, !dbg !4243
  %112 = add nsw i32 %111, 1, !dbg !4243
  store i32 %112, ptr %18, align 4, !dbg !4243
  br label %95, !dbg !4244, !llvm.loop !4245

113:                                              ; preds = %107
  %114 = load i32, ptr %18, align 4, !dbg !4247
  %115 = load i32, ptr @n_segs_visited, align 4, !dbg !4249
  %116 = icmp eq i32 %114, %115, !dbg !4250
  br i1 %116, label %117, label %130, !dbg !4250

117:                                              ; preds = %113
  %118 = load i32, ptr %17, align 4, !dbg !4251
  %119 = icmp sgt i32 %118, -1, !dbg !4251
  br i1 %119, label %121, label %120, !dbg !4254

120:                                              ; preds = %117
  store i32 1, ptr %4, align 4, !dbg !4255
  br label %144, !dbg !4255

121:                                              ; preds = %117
  %122 = load ptr, ptr %5, align 8, !dbg !4256
  %123 = load i32, ptr %17, align 4, !dbg !4259
  %124 = load i32, ptr %7, align 4, !dbg !4260
  %125 = call noundef i32 @_Z22sphere_intersects_wallP10vms_vectorii(ptr noundef %122, i32 noundef %123, i32 noundef %124), !dbg !4261
  %126 = icmp ne i32 %125, 0, !dbg !4261
  br i1 %126, label %127, label %128, !dbg !4261

127:                                              ; preds = %121
  store i32 1, ptr %4, align 4, !dbg !4262
  br label %144, !dbg !4262

128:                                              ; preds = %121
  br label %129

129:                                              ; preds = %128
  br label %130, !dbg !4263

130:                                              ; preds = %129, %113
  br label %131, !dbg !4264

131:                                              ; preds = %130, %63
  br label %132, !dbg !4265

132:                                              ; preds = %131, %51
  br label %133, !dbg !4266

133:                                              ; preds = %132
  %134 = load i32, ptr %13, align 4, !dbg !4267
  %135 = add nsw i32 %134, 1, !dbg !4267
  store i32 %135, ptr %13, align 4, !dbg !4267
  %136 = load i32, ptr %12, align 4, !dbg !4268
  %137 = shl i32 %136, 1, !dbg !4268
  store i32 %137, ptr %12, align 4, !dbg !4268
  br label %48, !dbg !4269, !llvm.loop !4270

138:                                              ; preds = %48
  br label %139, !dbg !4272

139:                                              ; preds = %138
  %140 = load i32, ptr %11, align 4, !dbg !4273
  %141 = add nsw i32 %140, 1, !dbg !4273
  store i32 %141, ptr %11, align 4, !dbg !4273
  br label %38, !dbg !4274, !llvm.loop !4275

142:                                              ; preds = %45
  br label %143, !dbg !4277

143:                                              ; preds = %142, %3
  store i32 0, ptr %4, align 4, !dbg !4278
  br label %144, !dbg !4278

144:                                              ; preds = %143, %127, %120
  %145 = load i32, ptr %4, align 4, !dbg !4279
  ret i32 %145, !dbg !4279
}

; Function Attrs: mustprogress noinline ssp uwtable(sync)
define noundef i32 @_Z22object_intersects_wallP6object(ptr noundef %0) #2 !dbg !4280 {
  %2 = alloca ptr, align 8
  store ptr %0, ptr %2, align 8
    #dbg_declare(ptr %2, !4283, !DIExpression(), !4284)
  store i32 0, ptr @n_segs_visited, align 4, !dbg !4285
  %3 = load ptr, ptr %2, align 8, !dbg !4286
  %4 = getelementptr inbounds nuw %struct.object, ptr %3, i32 0, i32 11, !dbg !4287
  %5 = load ptr, ptr %2, align 8, !dbg !4288
  %6 = getelementptr inbounds nuw %struct.object, ptr %5, i32 0, i32 9, !dbg !4289
  %7 = load i16, ptr %6, align 2, !dbg !4289
  %8 = sext i16 %7 to i32, !dbg !4288
  %9 = load ptr, ptr %2, align 8, !dbg !4290
  %10 = getelementptr inbounds nuw %struct.object, ptr %9, i32 0, i32 13, !dbg !4291
  %11 = load i32, ptr %10, align 4, !dbg !4291
  %12 = call noundef i32 @_Z22sphere_intersects_wallP10vms_vectorii(ptr noundef %4, i32 noundef %8, i32 noundef %11), !dbg !4292
  ret i32 %12, !dbg !4293
}

; Function Attrs: mustprogress noinline ssp uwtable(sync)
define linkonce_odr hidden noundef nonnull align 4 dereferenceable(4) ptr @_ZNSt3__13minB8ne200100IiNS_6__lessIvvEEEERKT_S5_S5_T0_(ptr noundef nonnull align 4 dereferenceable(4) %0, ptr noundef nonnull align 4 dereferenceable(4) %1) #2 !dbg !4294 {
  %3 = alloca %"struct.std::__1::__less", align 1
  %4 = alloca ptr, align 8
  %5 = alloca ptr, align 8
  store ptr %0, ptr %4, align 8
    #dbg_declare(ptr %4, !4304, !DIExpression(), !4305)
  store ptr %1, ptr %5, align 8
    #dbg_declare(ptr %5, !4306, !DIExpression(), !4307)
    #dbg_declare(ptr %3, !4308, !DIExpression(), !4309)
  %6 = load ptr, ptr %5, align 8, !dbg !4310
  %7 = load ptr, ptr %4, align 8, !dbg !4311
  %8 = call noundef zeroext i1 @_ZNKSt3__16__lessIvvEclB8ne200100IiiEEbRKT_RKT0_(ptr noundef nonnull align 1 dereferenceable(1) %3, ptr noundef nonnull align 4 dereferenceable(4) %6, ptr noundef nonnull align 4 dereferenceable(4) %7), !dbg !4312
  br i1 %8, label %9, label %11, !dbg !4312

9:                                                ; preds = %2
  %10 = load ptr, ptr %5, align 8, !dbg !4313
  br label %13, !dbg !4312

11:                                               ; preds = %2
  %12 = load ptr, ptr %4, align 8, !dbg !4314
  br label %13, !dbg !4312

13:                                               ; preds = %11, %9
  %14 = phi ptr [ %10, %9 ], [ %12, %11 ], !dbg !4312
  ret ptr %14, !dbg !4315
}

; Function Attrs: mustprogress noinline nounwind ssp uwtable(sync)
define linkonce_odr hidden noundef zeroext i1 @_ZNKSt3__16__lessIvvEclB8ne200100IiiEEbRKT_RKT0_(ptr noundef nonnull align 1 dereferenceable(1) %0, ptr noundef nonnull align 4 dereferenceable(4) %1, ptr noundef nonnull align 4 dereferenceable(4) %2) #0 !dbg !4316 {
  %4 = alloca ptr, align 8
  %5 = alloca ptr, align 8
  %6 = alloca ptr, align 8
  store ptr %0, ptr %4, align 8
    #dbg_declare(ptr %4, !4324, !DIExpression(), !4326)
  store ptr %1, ptr %5, align 8
    #dbg_declare(ptr %5, !4327, !DIExpression(), !4328)
  store ptr %2, ptr %6, align 8
    #dbg_declare(ptr %6, !4329, !DIExpression(), !4330)
  %7 = load ptr, ptr %4, align 8
  %8 = load ptr, ptr %5, align 8, !dbg !4331
  %9 = load i32, ptr %8, align 4, !dbg !4331
  %10 = load ptr, ptr %6, align 8, !dbg !4332
  %11 = load i32, ptr %10, align 4, !dbg !4332
  %12 = icmp slt i32 %9, %11, !dbg !4333
  ret i1 %12, !dbg !4334
}

attributes #0 = { mustprogress noinline nounwind ssp uwtable(sync) "frame-pointer"="non-leaf" "no-trapping-math"="true" "stack-protector-buffer-size"="8" "target-cpu"="apple-m1" "target-features"="+aes,+altnzcv,+ccdp,+ccidx,+ccpp,+complxnum,+crc,+dit,+dotprod,+flagm,+fp-armv8,+fp16fml,+fptoint,+fullfp16,+jsconv,+lse,+neon,+pauth,+perfmon,+predres,+ras,+rcpc,+rdm,+sb,+sha2,+sha3,+specrestrict,+ssbs,+v8.1a,+v8.2a,+v8.3a,+v8.4a,+v8a,+zcm,+zcz" }
attributes #1 = { nocallback nofree nosync nounwind speculatable willreturn memory(none) }
attributes #2 = { mustprogress noinline ssp uwtable(sync) "frame-pointer"="non-leaf" "no-trapping-math"="true" "stack-protector-buffer-size"="8" "target-cpu"="apple-m1" "target-features"="+aes,+altnzcv,+ccdp,+ccidx,+ccpp,+complxnum,+crc,+dit,+dotprod,+flagm,+fp-armv8,+fp16fml,+fptoint,+fullfp16,+jsconv,+lse,+neon,+pauth,+perfmon,+predres,+ras,+rcpc,+rdm,+sb,+sha2,+sha3,+specrestrict,+ssbs,+v8.1a,+v8.2a,+v8.3a,+v8.4a,+v8a,+zcm,+zcz" }
attributes #3 = { "frame-pointer"="non-leaf" "no-trapping-math"="true" "stack-protector-buffer-size"="8" "target-cpu"="apple-m1" "target-features"="+aes,+altnzcv,+ccdp,+ccidx,+ccpp,+complxnum,+crc,+dit,+dotprod,+flagm,+fp-armv8,+fp16fml,+fptoint,+fullfp16,+jsconv,+lse,+neon,+pauth,+perfmon,+predres,+ras,+rcpc,+rdm,+sb,+sha2,+sha3,+specrestrict,+ssbs,+v8.1a,+v8.2a,+v8.3a,+v8.4a,+v8a,+zcm,+zcz" }
attributes #4 = { nocallback nofree nounwind willreturn memory(argmem: readwrite) }

!llvm.module.flags = !{!1368, !1369, !1370, !1371, !1372, !1373, !1374}
!llvm.dbg.cu = !{!15}
!llvm.ident = !{!1375}

!0 = !DIGlobalVariableExpression(var: !1, expr: !DIExpression())
!1 = distinct !DIGlobalVariable(scope: null, file: !2, line: 127, type: !3, isLocal: true, isDefinition: true)
!2 = !DIFile(filename: "main_d2/fvi.cpp", directory: "/Users/richard/code/ChocolateDescent", checksumkind: CSK_MD5, checksum: "765eca8a4d2dfcc9bcb0ff713fb0895e")
!3 = !DICompositeType(tag: DW_TAG_array_type, baseType: !4, size: 64, elements: !6)
!4 = !DIDerivedType(tag: DW_TAG_const_type, baseType: !5)
!5 = !DIBasicType(name: "char", size: 8, encoding: DW_ATE_signed_char)
!6 = !{!7}
!7 = !DISubrange(count: 8)
!8 = !DIGlobalVariableExpression(var: !9, expr: !DIExpression())
!9 = distinct !DIGlobalVariable(scope: null, file: !2, line: 127, type: !10, isLocal: true, isDefinition: true)
!10 = !DICompositeType(tag: DW_TAG_array_type, baseType: !4, size: 424, elements: !11)
!11 = !{!12}
!12 = !DISubrange(count: 53)
!13 = !DIGlobalVariableExpression(var: !14, expr: !DIExpression())
!14 = distinct !DIGlobalVariable(name: "ij_table", scope: !15, file: !2, line: 152, type: !1365, isLocal: false, isDefinition: true)
!15 = distinct !DICompileUnit(language: DW_LANG_C_plus_plus_14, file: !16, producer: "Homebrew clang version 20.1.8", isOptimized: false, runtimeVersion: 0, emissionKind: FullDebug, retainedTypes: !17, globals: !37, imports: !118, splitDebugInlining: false, nameTableKind: Apple, sysroot: "/Library/Developer/CommandLineTools/SDKs/MacOSX15.sdk", sdk: "MacOSX15.sdk")
!16 = !DIFile(filename: "/Users/richard/code/ChocolateDescent/main_d2/fvi.cpp", directory: "/Users/richard/code/ChocolateDescent/build-c-ref", checksumkind: CSK_MD5, checksum: "765eca8a4d2dfcc9bcb0ff713fb0895e")
!17 = !{!18, !21, !35, !36, !28}
!18 = !DIDerivedType(tag: DW_TAG_typedef, name: "int64_t", file: !19, line: 30, baseType: !20)
!19 = !DIFile(filename: "/Library/Developer/CommandLineTools/SDKs/MacOSX15.sdk/usr/include/sys/_types/_int64_t.h", directory: "", checksumkind: CSK_MD5, checksum: "e6d85c1a9e23dbf7518ce3b162aac800")
!20 = !DIBasicType(name: "long long", size: 64, encoding: DW_ATE_signed)
!21 = !DIDerivedType(tag: DW_TAG_pointer_type, baseType: !22, size: 64)
!22 = !DIDerivedType(tag: DW_TAG_typedef, name: "vms_vector_array", file: !23, line: 27, baseType: !24)
!23 = !DIFile(filename: "./vecmat/vecmat.h", directory: "/Users/richard/code/ChocolateDescent", checksumkind: CSK_MD5, checksum: "dfa84e3325c1ea4f5f74699fff5ef2bf")
!24 = distinct !DICompositeType(tag: DW_TAG_structure_type, name: "vms_vector_array", file: !23, line: 24, size: 96, flags: DIFlagTypePassByValue, elements: !25, identifier: "_ZTS16vms_vector_array")
!25 = !{!26}
!26 = !DIDerivedType(tag: DW_TAG_member, name: "xyz", scope: !24, file: !23, line: 26, baseType: !27, size: 96)
!27 = !DICompositeType(tag: DW_TAG_array_type, baseType: !28, size: 96, elements: !33)
!28 = !DIDerivedType(tag: DW_TAG_typedef, name: "fix", file: !29, line: 20, baseType: !30)
!29 = !DIFile(filename: "./fix/fix.h", directory: "/Users/richard/code/ChocolateDescent", checksumkind: CSK_MD5, checksum: "c5006a11bf8b4cb7d963898499eda13a")
!30 = !DIDerivedType(tag: DW_TAG_typedef, name: "int32_t", file: !31, line: 30, baseType: !32)
!31 = !DIFile(filename: "/Library/Developer/CommandLineTools/SDKs/MacOSX15.sdk/usr/include/sys/_types/_int32_t.h", directory: "", checksumkind: CSK_MD5, checksum: "d23e8406e80ee79983f28509c741fa17")
!32 = !DIBasicType(name: "int", size: 32, encoding: DW_ATE_signed)
!33 = !{!34}
!34 = !DISubrange(count: 3)
!35 = !DIDerivedType(tag: DW_TAG_pointer_type, baseType: !32, size: 64)
!36 = !DIBasicType(name: "unsigned int", size: 32, encoding: DW_ATE_unsigned)
!37 = !{!0, !8, !13, !38, !43, !45, !50, !52, !58, !60, !62, !64, !66, !68, !76, !78, !83, !88, !93, !98, !103, !108, !110, !115}
!38 = !DIGlobalVariableExpression(var: !39, expr: !DIExpression())
!39 = distinct !DIGlobalVariable(scope: null, file: !2, line: 306, type: !40, isLocal: true, isDefinition: true)
!40 = !DICompositeType(tag: DW_TAG_array_type, baseType: !4, size: 296, elements: !41)
!41 = !{!42}
!42 = !DISubrange(count: 37)
!43 = !DIGlobalVariableExpression(var: !44, expr: !DIExpression())
!44 = distinct !DIGlobalVariable(name: "disable_new_fvi_stuff", scope: !15, file: !2, line: 397, type: !32, isLocal: false, isDefinition: true)
!45 = !DIGlobalVariableExpression(var: !46, expr: !DIExpression())
!46 = distinct !DIGlobalVariable(scope: null, file: !2, line: 411, type: !47, isLocal: true, isDefinition: true)
!47 = !DICompositeType(tag: DW_TAG_array_type, baseType: !4, size: 360, elements: !48)
!48 = !{!49}
!49 = !DISubrange(count: 45)
!50 = !DIGlobalVariableExpression(var: !51, expr: !DIExpression())
!51 = distinct !DIGlobalVariable(name: "n_segs_visited", scope: !15, file: !2, line: 700, type: !32, isLocal: false, isDefinition: true)
!52 = !DIGlobalVariableExpression(var: !53, expr: !DIExpression())
!53 = distinct !DIGlobalVariable(name: "segs_visited", scope: !15, file: !2, line: 701, type: !54, isLocal: false, isDefinition: true)
!54 = !DICompositeType(tag: DW_TAG_array_type, baseType: !55, size: 1600, elements: !56)
!55 = !DIBasicType(name: "short", size: 16, encoding: DW_ATE_signed)
!56 = !{!57}
!57 = !DISubrange(count: 100)
!58 = !DIGlobalVariableExpression(var: !59, expr: !DIExpression())
!59 = distinct !DIGlobalVariable(name: "fvi_nest_count", scope: !15, file: !2, line: 703, type: !32, isLocal: false, isDefinition: true)
!60 = !DIGlobalVariableExpression(var: !61, expr: !DIExpression())
!61 = distinct !DIGlobalVariable(name: "fvi_hit_object", scope: !15, file: !2, line: 706, type: !32, isLocal: false, isDefinition: true)
!62 = !DIGlobalVariableExpression(var: !63, expr: !DIExpression())
!63 = distinct !DIGlobalVariable(name: "fvi_hit_seg", scope: !15, file: !2, line: 707, type: !32, isLocal: false, isDefinition: true)
!64 = !DIGlobalVariableExpression(var: !65, expr: !DIExpression())
!65 = distinct !DIGlobalVariable(name: "fvi_hit_side", scope: !15, file: !2, line: 708, type: !32, isLocal: false, isDefinition: true)
!66 = !DIGlobalVariableExpression(var: !67, expr: !DIExpression())
!67 = distinct !DIGlobalVariable(name: "fvi_hit_side_seg", scope: !15, file: !2, line: 709, type: !32, isLocal: false, isDefinition: true)
!68 = !DIGlobalVariableExpression(var: !69, expr: !DIExpression())
!69 = distinct !DIGlobalVariable(name: "wall_norm", scope: !15, file: !2, line: 710, type: !70, isLocal: false, isDefinition: true)
!70 = !DIDerivedType(tag: DW_TAG_typedef, name: "vms_vector", file: !23, line: 22, baseType: !71)
!71 = distinct !DICompositeType(tag: DW_TAG_structure_type, name: "vms_vector", file: !23, line: 19, size: 96, flags: DIFlagTypePassByValue, elements: !72, identifier: "_ZTS10vms_vector")
!72 = !{!73, !74, !75}
!73 = !DIDerivedType(tag: DW_TAG_member, name: "x", scope: !71, file: !23, line: 21, baseType: !28, size: 32)
!74 = !DIDerivedType(tag: DW_TAG_member, name: "y", scope: !71, file: !23, line: 21, baseType: !28, size: 32, offset: 32)
!75 = !DIDerivedType(tag: DW_TAG_member, name: "z", scope: !71, file: !23, line: 21, baseType: !28, size: 32, offset: 64)
!76 = !DIGlobalVariableExpression(var: !77, expr: !DIExpression())
!77 = distinct !DIGlobalVariable(name: "fvi_hit_seg2", scope: !15, file: !2, line: 711, type: !32, isLocal: false, isDefinition: true)
!78 = !DIGlobalVariableExpression(var: !79, expr: !DIExpression())
!79 = distinct !DIGlobalVariable(scope: null, file: !2, line: 861, type: !80, isLocal: true, isDefinition: true)
!80 = !DICompositeType(tag: DW_TAG_array_type, baseType: !4, size: 280, elements: !81)
!81 = !{!82}
!82 = !DISubrange(count: 35)
!83 = !DIGlobalVariableExpression(var: !84, expr: !DIExpression())
!84 = distinct !DIGlobalVariable(scope: null, file: !2, line: 862, type: !85, isLocal: true, isDefinition: true)
!85 = !DICompositeType(tag: DW_TAG_array_type, baseType: !4, size: 504, elements: !86)
!86 = !{!87}
!87 = !DISubrange(count: 63)
!88 = !DIGlobalVariableExpression(var: !89, expr: !DIExpression())
!89 = distinct !DIGlobalVariable(scope: null, file: !2, line: 923, type: !90, isLocal: true, isDefinition: true)
!90 = !DICompositeType(tag: DW_TAG_array_type, baseType: !4, size: 368, elements: !91)
!91 = !{!92}
!92 = !DISubrange(count: 46)
!93 = !DIGlobalVariableExpression(var: !94, expr: !DIExpression())
!94 = distinct !DIGlobalVariable(scope: null, file: !2, line: 1036, type: !95, isLocal: true, isDefinition: true)
!95 = !DICompositeType(tag: DW_TAG_array_type, baseType: !4, size: 152, elements: !96)
!96 = !{!97}
!97 = !DISubrange(count: 19)
!98 = !DIGlobalVariableExpression(var: !99, expr: !DIExpression())
!99 = distinct !DIGlobalVariable(scope: null, file: !2, line: 1156, type: !100, isLocal: true, isDefinition: true)
!100 = !DICompositeType(tag: DW_TAG_array_type, baseType: !4, size: 184, elements: !101)
!101 = !{!102}
!102 = !DISubrange(count: 23)
!103 = !DIGlobalVariableExpression(var: !104, expr: !DIExpression())
!104 = distinct !DIGlobalVariable(scope: null, file: !2, line: 1317, type: !105, isLocal: true, isDefinition: true)
!105 = !DICompositeType(tag: DW_TAG_array_type, baseType: !4, size: 312, elements: !106)
!106 = !{!107}
!107 = !DISubrange(count: 39)
!108 = !DIGlobalVariableExpression(var: !109, expr: !DIExpression())
!109 = distinct !DIGlobalVariable(scope: null, file: !2, line: 1323, type: !80, isLocal: true, isDefinition: true)
!110 = !DIGlobalVariableExpression(var: !111, expr: !DIExpression())
!111 = distinct !DIGlobalVariable(scope: null, file: !2, line: 1458, type: !112, isLocal: true, isDefinition: true)
!112 = !DICompositeType(tag: DW_TAG_array_type, baseType: !4, size: 328, elements: !113)
!113 = !{!114}
!114 = !DISubrange(count: 41)
!115 = !DIGlobalVariableExpression(var: !116, expr: !DIExpression(DW_OP_constu, 16, DW_OP_stack_value))
!116 = distinct !DIGlobalVariable(name: "FRACBITS", scope: !15, file: !29, line: 18, type: !117, isLocal: true, isDefinition: true)
!117 = !DIDerivedType(tag: DW_TAG_const_type, baseType: !32)
!118 = !{!119, !126, !129, !130, !131, !135, !139, !142, !146, !149, !151, !153, !155, !157, !159, !161, !163, !165, !167, !169, !171, !173, !175, !177, !179, !185, !189, !192, !195, !200, !206, !208, !210, !212, !214, !216, !218, !220, !222, !224, !226, !228, !230, !232, !237, !242, !247, !252, !254, !257, !259, !261, !263, !265, !267, !269, !271, !273, !275, !279, !284, !288, !290, !294, !298, !311, !327, !328, !381, !390, !392, !400, !406, !410, !414, !416, !420, !424, !428, !432, !436, !440, !442, !444, !448, !454, !459, !463, !467, !471, !475, !479, !483, !487, !489, !491, !495, !497, !501, !505, !510, !512, !514, !516, !520, !524, !528, !530, !534, !536, !538, !540, !542, !548, !552, !554, !560, !565, !569, !573, !578, !583, !587, !591, !595, !599, !601, !603, !611, !613, !617, !621, !623, !625, !629, !633, !637, !639, !643, !648, !652, !656, !658, !660, !662, !664, !666, !668, !672, !676, !684, !686, !688, !690, !696, !698, !699, !700, !701, !704, !706, !711, !715, !717, !719, !723, !725, !727, !729, !731, !733, !735, !737, !741, !745, !747, !749, !750, !755, !757, !759, !761, !763, !765, !767, !769, !771, !773, !775, !777, !779, !781, !783, !785, !787, !791, !793, !795, !797, !801, !803, !807, !809, !811, !813, !815, !819, !821, !825, !829, !831, !833, !837, !839, !843, !845, !847, !851, !853, !855, !857, !859, !861, !863, !867, !869, !871, !873, !875, !877, !879, !881, !885, !889, !891, !893, !895, !897, !899, !901, !903, !905, !907, !909, !911, !913, !915, !917, !919, !921, !923, !925, !927, !931, !933, !935, !937, !941, !943, !947, !949, !951, !953, !955, !959, !961, !965, !967, !969, !971, !973, !977, !979, !981, !985, !987, !989, !991, !996, !1001, !1005, !1006, !1010, !1014, !1019, !1024, !1028, !1034, !1038, !1040, !1044, !1052, !1058, !1064, !1066, !1070, !1074, !1078, !1083, !1087, !1091, !1095, !1099, !1103, !1107, !1111, !1115, !1120, !1124, !1128, !1132, !1137, !1142, !1146, !1148, !1152, !1154, !1161, !1165, !1166, !1170, !1174, !1178, !1182, !1184, !1188, !1192, !1196, !1200, !1204, !1206, !1208, !1210, !1212, !1213, !1217, !1219, !1223, !1227, !1231, !1233, !1237, !1241, !1245, !1251, !1253, !1257, !1261, !1265, !1267, !1271, !1275, !1279, !1281, !1283, !1285, !1289, !1293, !1298, !1302, !1308, !1312, !1316, !1318, !1320, !1322, !1326, !1330, !1334, !1336, !1338, !1342, !1346, !1348, !1352, !1356, !1359, !1361, !1363}
!119 = !DIImportedEntity(tag: DW_TAG_imported_declaration, scope: !120, entity: !122, file: !125, line: 158)
!120 = !DINamespace(name: "__1", scope: !121, exportSymbols: true)
!121 = !DINamespace(name: "std", scope: null)
!122 = !DIDerivedType(tag: DW_TAG_typedef, name: "int8_t", file: !123, line: 30, baseType: !124)
!123 = !DIFile(filename: "/Library/Developer/CommandLineTools/SDKs/MacOSX15.sdk/usr/include/sys/_types/_int8_t.h", directory: "", checksumkind: CSK_MD5, checksum: "5052dfe782b50fed2355b8f61a9e4fa9")
!124 = !DIBasicType(name: "signed char", size: 8, encoding: DW_ATE_signed_char)
!125 = !DIFile(filename: "/opt/homebrew/Cellar/llvm@20/20.1.8/bin/../include/c++/v1/cstdint", directory: "")
!126 = !DIImportedEntity(tag: DW_TAG_imported_declaration, scope: !120, entity: !127, file: !125, line: 159)
!127 = !DIDerivedType(tag: DW_TAG_typedef, name: "int16_t", file: !128, line: 30, baseType: !55)
!128 = !DIFile(filename: "/Library/Developer/CommandLineTools/SDKs/MacOSX15.sdk/usr/include/sys/_types/_int16_t.h", directory: "", checksumkind: CSK_MD5, checksum: "47ed3c3ac6f65bfec021ca2b7be18e7e")
!129 = !DIImportedEntity(tag: DW_TAG_imported_declaration, scope: !120, entity: !30, file: !125, line: 160)
!130 = !DIImportedEntity(tag: DW_TAG_imported_declaration, scope: !120, entity: !18, file: !125, line: 161)
!131 = !DIImportedEntity(tag: DW_TAG_imported_declaration, scope: !120, entity: !132, file: !125, line: 163)
!132 = !DIDerivedType(tag: DW_TAG_typedef, name: "uint8_t", file: !133, line: 31, baseType: !134)
!133 = !DIFile(filename: "/Library/Developer/CommandLineTools/SDKs/MacOSX15.sdk/usr/include/_types/_uint8_t.h", directory: "", checksumkind: CSK_MD5, checksum: "8b64ccf8c67b8c006b07b8daf1b49be5")
!134 = !DIBasicType(name: "unsigned char", size: 8, encoding: DW_ATE_unsigned_char)
!135 = !DIImportedEntity(tag: DW_TAG_imported_declaration, scope: !120, entity: !136, file: !125, line: 164)
!136 = !DIDerivedType(tag: DW_TAG_typedef, name: "uint16_t", file: !137, line: 31, baseType: !138)
!137 = !DIFile(filename: "/Library/Developer/CommandLineTools/SDKs/MacOSX15.sdk/usr/include/_types/_uint16_t.h", directory: "", checksumkind: CSK_MD5, checksum: "f0aa926da906b10566dd3171bf347ab7")
!138 = !DIBasicType(name: "unsigned short", size: 16, encoding: DW_ATE_unsigned)
!139 = !DIImportedEntity(tag: DW_TAG_imported_declaration, scope: !120, entity: !140, file: !125, line: 165)
!140 = !DIDerivedType(tag: DW_TAG_typedef, name: "uint32_t", file: !141, line: 31, baseType: !36)
!141 = !DIFile(filename: "/Library/Developer/CommandLineTools/SDKs/MacOSX15.sdk/usr/include/_types/_uint32_t.h", directory: "", checksumkind: CSK_MD5, checksum: "0254eb80c6b9719ac45c3c1cf872109b")
!142 = !DIImportedEntity(tag: DW_TAG_imported_declaration, scope: !120, entity: !143, file: !125, line: 166)
!143 = !DIDerivedType(tag: DW_TAG_typedef, name: "uint64_t", file: !144, line: 31, baseType: !145)
!144 = !DIFile(filename: "/Library/Developer/CommandLineTools/SDKs/MacOSX15.sdk/usr/include/_types/_uint64_t.h", directory: "", checksumkind: CSK_MD5, checksum: "77fc5e91653260959605f129691cf9b1")
!145 = !DIBasicType(name: "unsigned long long", size: 64, encoding: DW_ATE_unsigned)
!146 = !DIImportedEntity(tag: DW_TAG_imported_declaration, scope: !120, entity: !147, file: !125, line: 168)
!147 = !DIDerivedType(tag: DW_TAG_typedef, name: "int_least8_t", file: !148, line: 29, baseType: !122)
!148 = !DIFile(filename: "/Library/Developer/CommandLineTools/SDKs/MacOSX15.sdk/usr/include/stdint.h", directory: "", checksumkind: CSK_MD5, checksum: "042ceedaf4137a8aaa272d0b27434016")
!149 = !DIImportedEntity(tag: DW_TAG_imported_declaration, scope: !120, entity: !150, file: !125, line: 169)
!150 = !DIDerivedType(tag: DW_TAG_typedef, name: "int_least16_t", file: !148, line: 30, baseType: !127)
!151 = !DIImportedEntity(tag: DW_TAG_imported_declaration, scope: !120, entity: !152, file: !125, line: 170)
!152 = !DIDerivedType(tag: DW_TAG_typedef, name: "int_least32_t", file: !148, line: 31, baseType: !30)
!153 = !DIImportedEntity(tag: DW_TAG_imported_declaration, scope: !120, entity: !154, file: !125, line: 171)
!154 = !DIDerivedType(tag: DW_TAG_typedef, name: "int_least64_t", file: !148, line: 32, baseType: !18)
!155 = !DIImportedEntity(tag: DW_TAG_imported_declaration, scope: !120, entity: !156, file: !125, line: 173)
!156 = !DIDerivedType(tag: DW_TAG_typedef, name: "uint_least8_t", file: !148, line: 33, baseType: !132)
!157 = !DIImportedEntity(tag: DW_TAG_imported_declaration, scope: !120, entity: !158, file: !125, line: 174)
!158 = !DIDerivedType(tag: DW_TAG_typedef, name: "uint_least16_t", file: !148, line: 34, baseType: !136)
!159 = !DIImportedEntity(tag: DW_TAG_imported_declaration, scope: !120, entity: !160, file: !125, line: 175)
!160 = !DIDerivedType(tag: DW_TAG_typedef, name: "uint_least32_t", file: !148, line: 35, baseType: !140)
!161 = !DIImportedEntity(tag: DW_TAG_imported_declaration, scope: !120, entity: !162, file: !125, line: 176)
!162 = !DIDerivedType(tag: DW_TAG_typedef, name: "uint_least64_t", file: !148, line: 36, baseType: !143)
!163 = !DIImportedEntity(tag: DW_TAG_imported_declaration, scope: !120, entity: !164, file: !125, line: 178)
!164 = !DIDerivedType(tag: DW_TAG_typedef, name: "int_fast8_t", file: !148, line: 40, baseType: !122)
!165 = !DIImportedEntity(tag: DW_TAG_imported_declaration, scope: !120, entity: !166, file: !125, line: 179)
!166 = !DIDerivedType(tag: DW_TAG_typedef, name: "int_fast16_t", file: !148, line: 41, baseType: !127)
!167 = !DIImportedEntity(tag: DW_TAG_imported_declaration, scope: !120, entity: !168, file: !125, line: 180)
!168 = !DIDerivedType(tag: DW_TAG_typedef, name: "int_fast32_t", file: !148, line: 42, baseType: !30)
!169 = !DIImportedEntity(tag: DW_TAG_imported_declaration, scope: !120, entity: !170, file: !125, line: 181)
!170 = !DIDerivedType(tag: DW_TAG_typedef, name: "int_fast64_t", file: !148, line: 43, baseType: !18)
!171 = !DIImportedEntity(tag: DW_TAG_imported_declaration, scope: !120, entity: !172, file: !125, line: 183)
!172 = !DIDerivedType(tag: DW_TAG_typedef, name: "uint_fast8_t", file: !148, line: 44, baseType: !132)
!173 = !DIImportedEntity(tag: DW_TAG_imported_declaration, scope: !120, entity: !174, file: !125, line: 184)
!174 = !DIDerivedType(tag: DW_TAG_typedef, name: "uint_fast16_t", file: !148, line: 45, baseType: !136)
!175 = !DIImportedEntity(tag: DW_TAG_imported_declaration, scope: !120, entity: !176, file: !125, line: 185)
!176 = !DIDerivedType(tag: DW_TAG_typedef, name: "uint_fast32_t", file: !148, line: 46, baseType: !140)
!177 = !DIImportedEntity(tag: DW_TAG_imported_declaration, scope: !120, entity: !178, file: !125, line: 186)
!178 = !DIDerivedType(tag: DW_TAG_typedef, name: "uint_fast64_t", file: !148, line: 47, baseType: !143)
!179 = !DIImportedEntity(tag: DW_TAG_imported_declaration, scope: !120, entity: !180, file: !125, line: 188)
!180 = !DIDerivedType(tag: DW_TAG_typedef, name: "intptr_t", file: !181, line: 32, baseType: !182)
!181 = !DIFile(filename: "/Library/Developer/CommandLineTools/SDKs/MacOSX15.sdk/usr/include/sys/_types/_intptr_t.h", directory: "", checksumkind: CSK_MD5, checksum: "e478ba47270923b1cca6659f19f02db1")
!182 = !DIDerivedType(tag: DW_TAG_typedef, name: "__darwin_intptr_t", file: !183, line: 40, baseType: !184)
!183 = !DIFile(filename: "/Library/Developer/CommandLineTools/SDKs/MacOSX15.sdk/usr/include/arm/_types.h", directory: "", checksumkind: CSK_MD5, checksum: "b270144f57ae258d0ce80b8f87be068c")
!184 = !DIBasicType(name: "long", size: 64, encoding: DW_ATE_signed)
!185 = !DIImportedEntity(tag: DW_TAG_imported_declaration, scope: !120, entity: !186, file: !125, line: 189)
!186 = !DIDerivedType(tag: DW_TAG_typedef, name: "uintptr_t", file: !187, line: 34, baseType: !188)
!187 = !DIFile(filename: "/Library/Developer/CommandLineTools/SDKs/MacOSX15.sdk/usr/include/sys/_types/_uintptr_t.h", directory: "", checksumkind: CSK_MD5, checksum: "e70ae655dd1b9d4ae0b1dcc073f5b7e4")
!188 = !DIBasicType(name: "unsigned long", size: 64, encoding: DW_ATE_unsigned)
!189 = !DIImportedEntity(tag: DW_TAG_imported_declaration, scope: !120, entity: !190, file: !125, line: 191)
!190 = !DIDerivedType(tag: DW_TAG_typedef, name: "intmax_t", file: !191, line: 32, baseType: !184)
!191 = !DIFile(filename: "/Library/Developer/CommandLineTools/SDKs/MacOSX15.sdk/usr/include/_types/_intmax_t.h", directory: "", checksumkind: CSK_MD5, checksum: "e37b9240f30f486478152ef3989b1545")
!192 = !DIImportedEntity(tag: DW_TAG_imported_declaration, scope: !120, entity: !193, file: !125, line: 192)
!193 = !DIDerivedType(tag: DW_TAG_typedef, name: "uintmax_t", file: !194, line: 32, baseType: !188)
!194 = !DIFile(filename: "/Library/Developer/CommandLineTools/SDKs/MacOSX15.sdk/usr/include/_types/_uintmax_t.h", directory: "", checksumkind: CSK_MD5, checksum: "8217a3fbb207d8e87ca5318c313e81c2")
!195 = !DIImportedEntity(tag: DW_TAG_imported_declaration, scope: !120, entity: !196, file: !199, line: 22)
!196 = !DIDerivedType(tag: DW_TAG_typedef, name: "max_align_t", file: !197, line: 16, baseType: !198)
!197 = !DIFile(filename: "/opt/homebrew/Cellar/llvm@20/20.1.8/lib/clang/20/include/__stddef_max_align_t.h", directory: "", checksumkind: CSK_MD5, checksum: "3c0a2f19d136d39aa835c737c7105def")
!198 = !DIBasicType(name: "long double", size: 64, encoding: DW_ATE_float)
!199 = !DIFile(filename: "/opt/homebrew/Cellar/llvm@20/20.1.8/bin/../include/c++/v1/__cstddef/max_align_t.h", directory: "")
!200 = !DIImportedEntity(tag: DW_TAG_imported_declaration, scope: !120, entity: !201, file: !205, line: 113)
!201 = !DISubprogram(name: "isalnum", linkageName: "_Z7isalnumi", scope: !202, file: !202, line: 217, type: !203, flags: DIFlagPrototyped, spFlags: 0)
!202 = !DIFile(filename: "/Library/Developer/CommandLineTools/SDKs/MacOSX15.sdk/usr/include/_ctype.h", directory: "", checksumkind: CSK_MD5, checksum: "b10215117a277691ffc4168ac4505796")
!203 = !DISubroutineType(types: !204)
!204 = !{!32, !32}
!205 = !DIFile(filename: "/opt/homebrew/Cellar/llvm@20/20.1.8/bin/../include/c++/v1/cctype", directory: "")
!206 = !DIImportedEntity(tag: DW_TAG_imported_declaration, scope: !120, entity: !207, file: !205, line: 114)
!207 = !DISubprogram(name: "isalpha", linkageName: "_Z7isalphai", scope: !202, file: !202, line: 223, type: !203, flags: DIFlagPrototyped, spFlags: 0)
!208 = !DIImportedEntity(tag: DW_TAG_imported_declaration, scope: !120, entity: !209, file: !205, line: 115)
!209 = !DISubprogram(name: "isblank", linkageName: "_Z7isblanki", scope: !202, file: !202, line: 229, type: !203, flags: DIFlagPrototyped, spFlags: 0)
!210 = !DIImportedEntity(tag: DW_TAG_imported_declaration, scope: !120, entity: !211, file: !205, line: 116)
!211 = !DISubprogram(name: "iscntrl", linkageName: "_Z7iscntrli", scope: !202, file: !202, line: 235, type: !203, flags: DIFlagPrototyped, spFlags: 0)
!212 = !DIImportedEntity(tag: DW_TAG_imported_declaration, scope: !120, entity: !213, file: !205, line: 117)
!213 = !DISubprogram(name: "isdigit", linkageName: "_Z7isdigiti", scope: !202, file: !202, line: 242, type: !203, flags: DIFlagPrototyped, spFlags: 0)
!214 = !DIImportedEntity(tag: DW_TAG_imported_declaration, scope: !120, entity: !215, file: !205, line: 118)
!215 = !DISubprogram(name: "isgraph", linkageName: "_Z7isgraphi", scope: !202, file: !202, line: 248, type: !203, flags: DIFlagPrototyped, spFlags: 0)
!216 = !DIImportedEntity(tag: DW_TAG_imported_declaration, scope: !120, entity: !217, file: !205, line: 119)
!217 = !DISubprogram(name: "islower", linkageName: "_Z7isloweri", scope: !202, file: !202, line: 254, type: !203, flags: DIFlagPrototyped, spFlags: 0)
!218 = !DIImportedEntity(tag: DW_TAG_imported_declaration, scope: !120, entity: !219, file: !205, line: 120)
!219 = !DISubprogram(name: "isprint", linkageName: "_Z7isprinti", scope: !202, file: !202, line: 260, type: !203, flags: DIFlagPrototyped, spFlags: 0)
!220 = !DIImportedEntity(tag: DW_TAG_imported_declaration, scope: !120, entity: !221, file: !205, line: 121)
!221 = !DISubprogram(name: "ispunct", linkageName: "_Z7ispuncti", scope: !202, file: !202, line: 266, type: !203, flags: DIFlagPrototyped, spFlags: 0)
!222 = !DIImportedEntity(tag: DW_TAG_imported_declaration, scope: !120, entity: !223, file: !205, line: 122)
!223 = !DISubprogram(name: "isspace", linkageName: "_Z7isspacei", scope: !202, file: !202, line: 272, type: !203, flags: DIFlagPrototyped, spFlags: 0)
!224 = !DIImportedEntity(tag: DW_TAG_imported_declaration, scope: !120, entity: !225, file: !205, line: 123)
!225 = !DISubprogram(name: "isupper", linkageName: "_Z7isupperi", scope: !202, file: !202, line: 278, type: !203, flags: DIFlagPrototyped, spFlags: 0)
!226 = !DIImportedEntity(tag: DW_TAG_imported_declaration, scope: !120, entity: !227, file: !205, line: 124)
!227 = !DISubprogram(name: "isxdigit", linkageName: "_Z8isxdigiti", scope: !202, file: !202, line: 285, type: !203, flags: DIFlagPrototyped, spFlags: 0)
!228 = !DIImportedEntity(tag: DW_TAG_imported_declaration, scope: !120, entity: !229, file: !205, line: 125)
!229 = !DISubprogram(name: "tolower", linkageName: "_Z7toloweri", scope: !202, file: !202, line: 297, type: !203, flags: DIFlagPrototyped, spFlags: 0)
!230 = !DIImportedEntity(tag: DW_TAG_imported_declaration, scope: !120, entity: !231, file: !205, line: 126)
!231 = !DISubprogram(name: "toupper", linkageName: "_Z7toupperi", scope: !202, file: !202, line: 303, type: !203, flags: DIFlagPrototyped, spFlags: 0)
!232 = !DIImportedEntity(tag: DW_TAG_imported_declaration, scope: !120, entity: !233, file: !236, line: 75)
!233 = !DIDerivedType(tag: DW_TAG_typedef, name: "wint_t", file: !234, line: 32, baseType: !235)
!234 = !DIFile(filename: "/Library/Developer/CommandLineTools/SDKs/MacOSX15.sdk/usr/include/sys/_types/_wint_t.h", directory: "", checksumkind: CSK_MD5, checksum: "6dfd3a3d5009054224653c03b2c2b6ac")
