; ModuleID = '/Users/richard/code/ChocolateDescent/main_d2/ai2.cpp'
source_filename = "/Users/richard/code/ChocolateDescent/main_d2/ai2.cpp"
target datalayout = "e-m:o-p270:32:32-p271:32:32-p272:64:64-i64:64-i128:128-n32:64-S128-Fn32"
target triple = "arm64-apple-macosx15.0.0"

%struct.object = type { i32, i8, i8, i16, i16, i8, i8, i8, i8, i16, i16, %struct.vms_vector, %struct.vms_matrix, i32, i32, %struct.vms_vector, i8, i8, i8, i8, i32, %union.anon, %union.anon.0, %union.anon.1 }
%struct.vms_matrix = type { %struct.vms_vector, %struct.vms_vector, %struct.vms_vector }
%struct.vms_vector = type { i32, i32, i32 }
%union.anon = type { %struct.physics_info }
%struct.physics_info = type { %struct.vms_vector, %struct.vms_vector, i32, i32, i32, %struct.vms_vector, %struct.vms_vector, i16, i16 }
%union.anon.0 = type { %struct.ai_static }
%struct.ai_static = type { i8, [11 x i8], i16, i16, i16, i8, i8, i16, i32, i32 }
%union.anon.1 = type { %struct.polyobj_info }
%struct.polyobj_info = type { i32, [10 x %struct.vms_angvec], i32, i32, i32 }
%struct.vms_angvec = type { i16, i16, i16 }
%struct.ai_local = type { i32, i32, i32, i32, i32, i32, i32, i32, i32, i32, i32, i32, i32, i32, i32, [10 x %struct.vms_angvec], [10 x %struct.vms_angvec], [10 x i8], [10 x i8] }
%struct.robot_info = type { i32, [8 x %struct.vms_vector], [8 x i8], i16, i16, i16, i16, i8, i8, i8, i8, i8, i8, i8, i8, i16, i8, i8, i32, i32, i32, i32, [5 x i32], [5 x i32], [5 x i32], [5 x i32], [5 x i32], [5 x i32], [5 x i8], [5 x i8], i8, i8, i8, i8, i8, i8, i8, i8, i8, i8, i8, i8, i8, i8, i8, [3 x i8], i8, i8, i8, i8, [9 x [5 x %struct.jointlist]], i32 }
%struct.jointlist = type { i16, i16 }
%struct.segment = type { [6 x %struct.side], [6 x i16], [8 x i16], i32 }
%struct.side = type { i8, i8, i16, i16, i16, [4 x %struct.uvl], [2 x %struct.vms_vector] }
%struct.uvl = type { i32, i32, i32 }
%struct.point_seg = type { i32, %struct.vms_vector }
%struct.fvi_info = type { i32, %struct.vms_vector, i32, i32, i32, i32, %struct.vms_vector, i32, [100 x i32] }
%struct.polymodel = type { i32, i32, ptr, [10 x i32], [10 x %struct.vms_vector], [10 x %struct.vms_vector], [10 x %struct.vms_vector], [10 x i32], [10 x i8], [10 x %struct.vms_vector], [10 x %struct.vms_vector], %struct.vms_vector, %struct.vms_vector, i32, i8, i16, i8 }
%struct.player = type { [9 x i8], [4 x i8], i16, i8, i32, i32, i32, i32, i32, i32, i8, i8, i8, i8, i16, i16, i16, [10 x i16], [10 x i16], i16, i32, i32, i32, i32, i32, i32, i16, i16, i16, i16, i16, i16, i16, i16, i16, i8, i8, i32, i8, i8 }
%struct.weapon_info = type { i8, i8, i16, i16, i8, i8, i16, i8, i8, i16, i8, i8, i16, i8, i8, i8, i8, i8, i8, i8, i8, i8, i32, i32, i32, %struct.bitmap_index, i32, i32, i32, [5 x i32], [5 x i32], i32, i32, i32, i32, i32, i32, i32, %struct.bitmap_index, %struct.bitmap_index }
%struct.bitmap_index = type { i16 }
%struct.ai_cloak_info = type { i32, i32, %struct.vms_vector }
%struct.wall = type { i32, i32, i32, i32, i8, i8, i8, i8, i8, i8, i8, i8 }
%struct.wclip = type { i32, i16, [50 x i16], i16, i16, i16, [13 x i8], i8 }
%struct.vclip = type { i32, i32, i32, i32, i16, [30 x %struct.bitmap_index], i32 }
%struct.digi_sound = type { i32, ptr }
%struct.fvi_query = type { ptr, ptr, i32, i32, i16, ptr, i32 }
%struct.jointpos = type { i16, %struct.vms_angvec }
%"struct.std::__1::__less" = type { i8 }

@Flinch_scale = global i32 4, align 4, !dbg !0
@Attack_scale = global i32 24, align 4, !dbg !14
@Mike_to_matt_xlate = global [8 x i8] c"\00\00\01\01\04\02\03\00", align 1, !dbg !17
@Num_boss_teleport_segs = global i32 0, align 4, !dbg !25
@Boss_teleport_segs = global [100 x i16] zeroinitializer, align 2, !dbg !27
@Num_boss_gate_segs = global i32 0, align 4, !dbg !33
@Boss_gate_segs = global [100 x i16] zeroinitializer, align 2, !dbg !35
@Boss_hit_time = external global i32, align 4
@Objects = external global [0 x %struct.object], align 4
@Ai_local_info = external global [350 x %struct.ai_local], align 4
@Robot_info = external global [0 x %struct.robot_info], align 4
@.str = private unnamed_addr constant [20 x i8] c"[obj %i -> normal] \00", align 1, !dbg !37
@Escort_kill_object = external global i32, align 4
@GameTime = external global i32, align 4
@N_robot_types = external global i32, align 4
@.str.1 = private unnamed_addr constant [62 x i8] c"Can't create Buddy.  No 'companion' bot found in Robot_info!\0A\00", align 1, !dbg !44
@Segments = external global [0 x %struct.segment], align 4
@ConsoleObject = external global ptr, align 8
@.str.2 = private unnamed_addr constant [24 x i8] c"Boss fits in segments:\0A\00", align 1, !dbg !49
@Highest_object_index = external global i32, align 4
@.str.3 = private unnamed_addr constant [5 x i8] c"%4i \00", align 1, !dbg !54
@Highest_segment_index = external global i32, align 4
@visited = external global [900 x i8], align 1
@.str.4 = private unnamed_addr constant [85 x i8] c"Warning: Too many boss teleport segments.  Found %i after searching %i/%i segments.\0A\00", align 1, !dbg !59
@Point_segs = external global [2500 x %struct.point_seg], align 4
@Point_segs_free_ptr = external global ptr, align 8
@Boss_dying_sound_playing = external global i8, align 1
@Boss_dying = external global i8, align 1
@Difficulty_level = external global i32, align 4
@Gate_interval = external global i32, align 4
@Ai_initialized = external global i32, align 4
@Current_level_num = external global i32, align 4
@Last_level = external global i32, align 4
@Boss_teleport_interval = external global i32, align 4
@Boss_cloak_interval = external global i32, align 4
@Lunacy = global i32 0, align 4, !dbg !64
@Diff_save = global i32 1, align 4, !dbg !66
@Firing_wait_copy = global [85 x i32] zeroinitializer, align 4, !dbg !68
@Firing_wait2_copy = global [85 x i32] zeroinitializer, align 4, !dbg !71
@Rapidfire_count_copy = global [85 x i8] zeroinitializer, align 1, !dbg !73
@FrameTime = external global i32, align 4
@.str.5 = private unnamed_addr constant [59 x i8] c"Degenerate vector in ai_turn_towards_vector (mag = %7.3f)\0A\00", align 1, !dbg !76
@Seismic_tremor_magnitude = external global i32, align 4
@.str.6 = private unnamed_addr constant [56 x i8] c"Object %i, gun is outside mine, moving towards center.\0A\00", align 1, !dbg !81
@Believed_player_pos = external global %struct.vms_vector, align 4
@Hit_data = external global %struct.fvi_info, align 4
@Hit_type = external global i32, align 4
@Hit_pos = external global %struct.vms_vector, align 4
@Hit_seg = external global i32, align 4
@Overall_agitation = external global i32, align 4
@Polygon_models = external global [0 x %struct.polymodel], align 8
@Robot_firing_enabled = external global i32, align 4
@Players = external global [12 x %struct.player], align 4
@Player_num = external global i32, align 4
@Weapon_info = external global [0 x %struct.weapon_info], align 4
@.str.7 = private unnamed_addr constant [52 x i8] c"vm_vec_dot(fire_vec, &objp->orient.fvec) < 3*F1_0/2\00", align 1, !dbg !86
@.str.8 = private unnamed_addr constant [53 x i8] c"/Users/richard/code/ChocolateDescent/main_d2/ai2.cpp\00", align 1, !dbg !91
@.str.9 = private unnamed_addr constant [25 x i8] c"robptr->attack_type == 0\00", align 1, !dbg !96
@Player_exploded = external global i32, align 4
@Boss_dying_start_time = external global i32, align 4
@Ai_cloak_info = external global [8 x %struct.ai_cloak_info], align 4
@FrameCount = external global i32, align 4
@.str.10 = private unnamed_addr constant [25 x i8] c"(dir >= 0) && (dir <= 3)\00", align 1, !dbg !101
@.str.11 = private unnamed_addr constant [39 x i8] c"Function move_around_player: Bad case.\00", align 1, !dbg !103
@.str.12 = private unnamed_addr constant [24 x i8] c"player_visibility != -1\00", align 1, !dbg !108
@ai_evaded = external global i32, align 4
@Player_is_dead = external global i32, align 4
@Ai_info_enabled = external global i32, align 4
@.str.13 = private unnamed_addr constant [8 x i8] c"Goal = \00", align 1, !dbg !110
@.str.14 = private unnamed_addr constant [6 x i8] c"NONE \00", align 1, !dbg !113
@.str.15 = private unnamed_addr constant [6 x i8] c"REST \00", align 1, !dbg !118
@.str.16 = private unnamed_addr constant [6 x i8] c"SRCH \00", align 1, !dbg !120
@.str.17 = private unnamed_addr constant [6 x i8] c"LOCK \00", align 1, !dbg !122
@.str.18 = private unnamed_addr constant [6 x i8] c"FLIN \00", align 1, !dbg !124
@.str.19 = private unnamed_addr constant [6 x i8] c"FIRE \00", align 1, !dbg !126
@.str.20 = private unnamed_addr constant [6 x i8] c"RECO \00", align 1, !dbg !128
@.str.21 = private unnamed_addr constant [6 x i8] c"ERR_ \00", align 1, !dbg !130
@.str.22 = private unnamed_addr constant [8 x i8] c" Cur = \00", align 1, !dbg !132
@.str.23 = private unnamed_addr constant [10 x i8] c" Aware = \00", align 1, !dbg !134
@.str.24 = private unnamed_addr constant [6 x i8] c"HITT \00", align 1, !dbg !139
@.str.25 = private unnamed_addr constant [6 x i8] c"COLL \00", align 1, !dbg !141
@.str.26 = private unnamed_addr constant [6 x i8] c"HURT \00", align 1, !dbg !143
@.str.27 = private unnamed_addr constant [33 x i8] c"Next fire = %6.3f, Time = %6.3f\0A\00", align 1, !dbg !145
@Break_on_object = global i32 -1, align 4, !dbg !150
@Dist_to_last_fired_upon_player_pos = external global i32, align 4
@.str.28 = private unnamed_addr constant [38 x i8] c"Robot_info[objp->id].attack_type == 0\00", align 1, !dbg !152
@Do_ai_flag = global i32 1, align 4, !dbg !157
@Cvv_test = global i32 0, align 4, !dbg !159
@Cvv_last_time = global [350 x i32] zeroinitializer, align 4, !dbg !161
@Gun_point_hack = global i32 0, align 4, !dbg !166
@Robot_sound_volume = global i32 65536, align 4, !dbg !168
@.str.29 = private unnamed_addr constant [68 x i8] c"Note: Killing robot #%i because he's badly stuck outside the mine.\0A\00", align 1, !dbg !170
@.str.30 = private unnamed_addr constant [63 x i8] c"Object #%i moved to center of segment #%i (%7.3f %7.3f %7.3f)\0A\00", align 1, !dbg !175
@.str.31 = private unnamed_addr constant [49 x i8] c"Object #%i still illegal, trying trickier move.\0A\00", align 1, !dbg !180
@Walls = external global [254 x %struct.wall], align 4
@Buddy_objnum = external global i32, align 4
@WallAnims = external global [60 x %struct.wclip], align 4
@Last_gate_time = external global i32, align 4
@vmd_identity_matrix = external global %struct.vms_matrix, align 4
@Vclip = external global [110 x %struct.vclip], align 4
@Spew_bots = global [8 x [3 x i32]] [[3 x i32] [i32 38, i32 40, i32 -1], [3 x i32] [i32 37, i32 -1, i32 -1], [3 x i32] [i32 43, i32 57, i32 -1], [3 x i32] [i32 26, i32 27, i32 58], [3 x i32] [i32 59, i32 58, i32 54], [3 x i32] [i32 60, i32 61, i32 54], [3 x i32] [i32 69, i32 29, i32 24], [3 x i32] [i32 72, i32 60, i32 73]], align 4, !dbg !185
@Max_spew_bots = global [8 x i32] [i32 2, i32 1, i32 2, i32 3, i32 3, i32 3, i32 3, i32 3], align 4, !dbg !190
@.str.32 = private unnamed_addr constant [50 x i8] c"(boss_index >= 0) && (boss_index < NUM_D2_BOSSES)\00", align 1, !dbg !193
@.str.33 = private unnamed_addr constant [50 x i8] c"Tried to spew a bot outside the mine!  Aborting!\0A\00", align 1, !dbg !198
@.str.34 = private unnamed_addr constant [51 x i8] c"(segnum >= 0) && (segnum <= Highest_segment_index)\00", align 1, !dbg !200
@.str.35 = private unnamed_addr constant [34 x i8] c"(posnum-1 >= 0) && (posnum-1 < 8)\00", align 1, !dbg !205
@Vertices = external global [0 x %struct.vms_vector], align 4
@.str.36 = private unnamed_addr constant [27 x i8] c"Num_boss_teleport_segs > 0\00", align 1, !dbg !210
@.str.37 = private unnamed_addr constant [61 x i8] c"(rand_segnum >= 0) && (rand_segnum <= Highest_segment_index)\00", align 1, !dbg !215
@Last_teleport_time = external global i32, align 4
@digi_sample_rate = external global i32, align 4
@GameSounds = external global [254 x %struct.digi_sound], align 8
@.str.38 = private unnamed_addr constant [23 x i8] c"Starting death sound!\0A\00", align 1, !dbg !220
@Prev_boss_shields = global i32 -1, align 4, !dbg !225
@.str.39 = private unnamed_addr constant [60 x i8] c"(boss_id >= BOSS_D2) && (boss_id < BOSS_D2 + NUM_D2_BOSSES)\00", align 1, !dbg !227
@.str.40 = private unnamed_addr constant [33 x i8] c"Boss shields = %7.3f, object %i\0A\00", align 1, !dbg !232
@Boss_teleports = external global [8 x i8], align 1
@Boss_cloak_start_time = external global i32, align 4
@Boss_cloak_end_time = external global i32, align 4
@Boss_cloak_duration = external global i32, align 4
@Game_mode = external global i32, align 4
@Last_fired_upon_player_pos = global %struct.vms_vector zeroinitializer, align 4, !dbg !234

; Function Attrs: mustprogress noinline nounwind ssp uwtable(sync)
define void @_Z14init_ai_systemv() #0 !dbg !1544 {
  ret void, !dbg !1545
}

; Function Attrs: mustprogress noinline ssp uwtable(sync)
define noundef i32 @_Z19ai_behavior_to_modei(i32 noundef %0) #1 !dbg !1546 {
  %2 = alloca i32, align 4
  %3 = alloca i32, align 4
  store i32 %0, ptr %3, align 4
    #dbg_declare(ptr %3, !1548, !DIExpression(), !1549)
  %4 = load i32, ptr %3, align 4, !dbg !1550
  switch i32 %4, label %12 [
    i32 128, label %5
    i32 129, label %6
    i32 130, label %7
    i32 131, label %8
    i32 132, label %9
    i32 133, label %10
    i32 134, label %11
  ], !dbg !1551

5:                                                ; preds = %1
  store i32 0, ptr %2, align 4, !dbg !1552
  br label %14, !dbg !1552

6:                                                ; preds = %1
  store i32 3, ptr %2, align 4, !dbg !1554
  br label %14, !dbg !1554

7:                                                ; preds = %1
  store i32 5, ptr %2, align 4, !dbg !1555
  br label %14, !dbg !1555

8:                                                ; preds = %1
  store i32 4, ptr %2, align 4, !dbg !1556
  br label %14, !dbg !1556

9:                                                ; preds = %1
  store i32 0, ptr %2, align 4, !dbg !1557
  br label %14, !dbg !1557

10:                                               ; preds = %1
  store i32 0, ptr %2, align 4, !dbg !1558
  br label %14, !dbg !1558

11:                                               ; preds = %1
  store i32 2, ptr %2, align 4, !dbg !1559
  br label %14, !dbg !1559

12:                                               ; preds = %1
  call void @_Z4Int3v(), !dbg !1560
  br label %13, !dbg !1561

13:                                               ; preds = %12
  store i32 0, ptr %2, align 4, !dbg !1562
  br label %14, !dbg !1562

14:                                               ; preds = %13, %11, %10, %9, %8, %7, %6, %5
  %15 = load i32, ptr %2, align 4, !dbg !1563
  ret i32 %15, !dbg !1563
}

declare void @_Z4Int3v() #2

; Function Attrs: mustprogress noinline nounwind ssp uwtable(sync)
define void @_Z21ai_init_boss_for_shipv() #0 !dbg !1564 {
  store i32 -655360, ptr @Boss_hit_time, align 4, !dbg !1565
  ret void, !dbg !1566
}

; Function Attrs: mustprogress noinline ssp uwtable(sync)
define void @_Z14init_ai_objectiii(i32 noundef %0, i32 noundef %1, i32 noundef %2) #1 !dbg !1567 {
  %4 = alloca i32, align 4
  %5 = alloca i32, align 4
  %6 = alloca i32, align 4
  %7 = alloca ptr, align 8
  %8 = alloca ptr, align 8
  %9 = alloca ptr, align 8
  %10 = alloca ptr, align 8
  store i32 %0, ptr %4, align 4
    #dbg_declare(ptr %4, !1570, !DIExpression(), !1571)
  store i32 %1, ptr %5, align 4
    #dbg_declare(ptr %5, !1572, !DIExpression(), !1573)
  store i32 %2, ptr %6, align 4
    #dbg_declare(ptr %6, !1574, !DIExpression(), !1575)
    #dbg_declare(ptr %7, !1576, !DIExpression(), !1707)
  %11 = load i32, ptr %4, align 4, !dbg !1708
  %12 = sext i32 %11 to i64, !dbg !1709
  %13 = getelementptr inbounds [0 x %struct.object], ptr @Objects, i64 0, i64 %12, !dbg !1709
  store ptr %13, ptr %7, align 8, !dbg !1707
    #dbg_declare(ptr %8, !1710, !DIExpression(), !1712)
  %14 = load ptr, ptr %7, align 8, !dbg !1713
  %15 = getelementptr inbounds nuw %struct.object, ptr %14, i32 0, i32 22, !dbg !1714
  store ptr %15, ptr %8, align 8, !dbg !1712
    #dbg_declare(ptr %9, !1715, !DIExpression(), !1740)
  %16 = load i32, ptr %4, align 4, !dbg !1741
  %17 = sext i32 %16 to i64, !dbg !1742
  %18 = getelementptr inbounds [350 x %struct.ai_local], ptr @Ai_local_info, i64 0, i64 %17, !dbg !1742
  store ptr %18, ptr %9, align 8, !dbg !1740
    #dbg_declare(ptr %10, !1743, !DIExpression(), !1814)
  %19 = load ptr, ptr %7, align 8, !dbg !1815
  %20 = getelementptr inbounds nuw %struct.object, ptr %19, i32 0, i32 2, !dbg !1816
  %21 = load i8, ptr %20, align 1, !dbg !1816
  %22 = zext i8 %21 to i64, !dbg !1817
  %23 = getelementptr inbounds nuw [0 x %struct.robot_info], ptr @Robot_info, i64 0, i64 %22, !dbg !1817
  store ptr %23, ptr %10, align 8, !dbg !1814
  %24 = load i32, ptr %5, align 4, !dbg !1818
  %25 = icmp eq i32 %24, 0, !dbg !1820
  br i1 %25, label %26, label %31, !dbg !1820

26:                                               ; preds = %3
  store i32 129, ptr %5, align 4, !dbg !1821
  %27 = load i32, ptr %5, align 4, !dbg !1823
  %28 = trunc i32 %27 to i8, !dbg !1823
  %29 = load ptr, ptr %8, align 8, !dbg !1824
  %30 = getelementptr inbounds nuw %struct.ai_static, ptr %29, i32 0, i32 0, !dbg !1825
  store i8 %28, ptr %30, align 4, !dbg !1826
  br label %31, !dbg !1827

31:                                               ; preds = %26, %3
  %32 = load ptr, ptr %9, align 8, !dbg !1828
  %33 = getelementptr inbounds nuw %struct.ai_local, ptr %32, i32 0, i32 3, !dbg !1829
  store i32 0, ptr %33, align 4, !dbg !1830
  %34 = load ptr, ptr %9, align 8, !dbg !1831
  %35 = getelementptr inbounds nuw %struct.ai_local, ptr %34, i32 0, i32 4, !dbg !1832
  store i32 0, ptr %35, align 4, !dbg !1833
  %36 = load i32, ptr %5, align 4, !dbg !1834
  %37 = icmp ne i32 %36, -1, !dbg !1836
  br i1 %37, label %38, label %50, !dbg !1836

38:                                               ; preds = %31
  %39 = load i32, ptr %5, align 4, !dbg !1837
  %40 = trunc i32 %39 to i8, !dbg !1837
  %41 = load ptr, ptr %8, align 8, !dbg !1839
  %42 = getelementptr inbounds nuw %struct.ai_static, ptr %41, i32 0, i32 0, !dbg !1840
  store i8 %40, ptr %42, align 4, !dbg !1841
  %43 = load ptr, ptr %8, align 8, !dbg !1842
  %44 = getelementptr inbounds nuw %struct.ai_static, ptr %43, i32 0, i32 0, !dbg !1843
  %45 = load i8, ptr %44, align 4, !dbg !1843
  %46 = zext i8 %45 to i32, !dbg !1842
  %47 = call noundef i32 @_Z19ai_behavior_to_modei(i32 noundef %46), !dbg !1844
  %48 = load ptr, ptr %9, align 8, !dbg !1845
  %49 = getelementptr inbounds nuw %struct.ai_local, ptr %48, i32 0, i32 3, !dbg !1846
  store i32 %47, ptr %49, align 4, !dbg !1847
  br label %67, !dbg !1848

50:                                               ; preds = %31
  %51 = load ptr, ptr %8, align 8, !dbg !1849
  %52 = getelementptr inbounds nuw %struct.ai_static, ptr %51, i32 0, i32 0, !dbg !1851
  %53 = load i8, ptr %52, align 4, !dbg !1851
  %54 = zext i8 %53 to i32, !dbg !1849
  %55 = icmp sge i32 %54, 128, !dbg !1852
  br i1 %55, label %56, label %62, !dbg !1853

56:                                               ; preds = %50
  %57 = load ptr, ptr %8, align 8, !dbg !1854
  %58 = getelementptr inbounds nuw %struct.ai_static, ptr %57, i32 0, i32 0, !dbg !1855
  %59 = load i8, ptr %58, align 4, !dbg !1855
  %60 = zext i8 %59 to i32, !dbg !1854
  %61 = icmp sle i32 %60, 134, !dbg !1856
  br i1 %61, label %66, label %62, !dbg !1857

62:                                               ; preds = %56, %50
  %63 = load i32, ptr %4, align 4, !dbg !1858
  call void (i32, ptr, ...) @_Z8_mprintfiPKcz(i32 noundef 0, ptr noundef @.str, i32 noundef %63), !dbg !1858
  %64 = load ptr, ptr %8, align 8, !dbg !1860
  %65 = getelementptr inbounds nuw %struct.ai_static, ptr %64, i32 0, i32 0, !dbg !1861
  store i8 -127, ptr %65, align 4, !dbg !1862
  br label %66, !dbg !1863

66:                                               ; preds = %62, %56
  br label %67

67:                                               ; preds = %66, %38
  %68 = load ptr, ptr %10, align 8, !dbg !1864
  %69 = getelementptr inbounds nuw %struct.robot_info, ptr %68, i32 0, i32 37, !dbg !1866
  %70 = load i8, ptr %69, align 1, !dbg !1866
  %71 = icmp ne i8 %70, 0, !dbg !1864
  br i1 %71, label %72, label %75, !dbg !1864

72:                                               ; preds = %67
  %73 = load ptr, ptr %9, align 8, !dbg !1867
  %74 = getelementptr inbounds nuw %struct.ai_local, ptr %73, i32 0, i32 3, !dbg !1869
  store i32 8, ptr %74, align 4, !dbg !1870
  store i32 -1, ptr @Escort_kill_object, align 4, !dbg !1871
  br label %75, !dbg !1872

75:                                               ; preds = %72, %67
  %76 = load ptr, ptr %10, align 8, !dbg !1873
  %77 = getelementptr inbounds nuw %struct.robot_info, ptr %76, i32 0, i32 40, !dbg !1875
  %78 = load i8, ptr %77, align 4, !dbg !1875
  %79 = icmp ne i8 %78, 0, !dbg !1873
  br i1 %79, label %80, label %85, !dbg !1873

80:                                               ; preds = %75
  %81 = load ptr, ptr %8, align 8, !dbg !1876
  %82 = getelementptr inbounds nuw %struct.ai_static, ptr %81, i32 0, i32 0, !dbg !1878
  store i8 -124, ptr %82, align 4, !dbg !1879
  %83 = load ptr, ptr %9, align 8, !dbg !1880
  %84 = getelementptr inbounds nuw %struct.ai_local, ptr %83, i32 0, i32 3, !dbg !1881
  store i32 17, ptr %84, align 4, !dbg !1882
  br label %85, !dbg !1883

85:                                               ; preds = %80, %75
  %86 = load ptr, ptr %10, align 8, !dbg !1884
  %87 = getelementptr inbounds nuw %struct.robot_info, ptr %86, i32 0, i32 31, !dbg !1886
  %88 = load i8, ptr %87, align 1, !dbg !1886
  %89 = icmp ne i8 %88, 0, !dbg !1884
  br i1 %89, label %90, label %100, !dbg !1884

90:                                               ; preds = %85
  %91 = load ptr, ptr %8, align 8, !dbg !1887
  %92 = getelementptr inbounds nuw %struct.ai_static, ptr %91, i32 0, i32 0, !dbg !1889
  store i8 -127, ptr %92, align 4, !dbg !1890
  %93 = load ptr, ptr %8, align 8, !dbg !1891
  %94 = getelementptr inbounds nuw %struct.ai_static, ptr %93, i32 0, i32 0, !dbg !1892
  %95 = load i8, ptr %94, align 4, !dbg !1892
  %96 = zext i8 %95 to i32, !dbg !1891
  %97 = call noundef i32 @_Z19ai_behavior_to_modei(i32 noundef %96), !dbg !1893
  %98 = load ptr, ptr %9, align 8, !dbg !1894
  %99 = getelementptr inbounds nuw %struct.ai_local, ptr %98, i32 0, i32 3, !dbg !1895
  store i32 %97, ptr %99, align 4, !dbg !1896
  br label %100, !dbg !1897

100:                                              ; preds = %90, %85
  %101 = load ptr, ptr %7, align 8, !dbg !1898
  %102 = getelementptr inbounds nuw %struct.object, ptr %101, i32 0, i32 21, !dbg !1898
  %103 = getelementptr inbounds nuw %struct.physics_info, ptr %102, i32 0, i32 0, !dbg !1898
  %104 = getelementptr inbounds nuw %struct.vms_vector, ptr %103, i32 0, i32 2, !dbg !1898
  store i32 0, ptr %104, align 4, !dbg !1898
  %105 = load ptr, ptr %7, align 8, !dbg !1898
  %106 = getelementptr inbounds nuw %struct.object, ptr %105, i32 0, i32 21, !dbg !1898
  %107 = getelementptr inbounds nuw %struct.physics_info, ptr %106, i32 0, i32 0, !dbg !1898
  %108 = getelementptr inbounds nuw %struct.vms_vector, ptr %107, i32 0, i32 1, !dbg !1898
  store i32 0, ptr %108, align 4, !dbg !1898
  %109 = load ptr, ptr %7, align 8, !dbg !1898
  %110 = getelementptr inbounds nuw %struct.object, ptr %109, i32 0, i32 21, !dbg !1898
  %111 = getelementptr inbounds nuw %struct.physics_info, ptr %110, i32 0, i32 0, !dbg !1898
  %112 = getelementptr inbounds nuw %struct.vms_vector, ptr %111, i32 0, i32 0, !dbg !1898
  store i32 0, ptr %112, align 4, !dbg !1898
  %113 = load ptr, ptr %9, align 8, !dbg !1899
  %114 = getelementptr inbounds nuw %struct.ai_local, ptr %113, i32 0, i32 10, !dbg !1900
  store i32 0, ptr %114, align 4, !dbg !1901
  %115 = load ptr, ptr %9, align 8, !dbg !1902
  %116 = getelementptr inbounds nuw %struct.ai_local, ptr %115, i32 0, i32 0, !dbg !1903
  store i32 0, ptr %116, align 4, !dbg !1904
  %117 = load ptr, ptr %8, align 8, !dbg !1905
  %118 = getelementptr inbounds nuw %struct.ai_static, ptr %117, i32 0, i32 1, !dbg !1906
  %119 = getelementptr inbounds [11 x i8], ptr %118, i64 0, i64 2, !dbg !1905
  store i8 2, ptr %119, align 1, !dbg !1907
  %120 = load ptr, ptr %8, align 8, !dbg !1908
  %121 = getelementptr inbounds nuw %struct.ai_static, ptr %120, i32 0, i32 1, !dbg !1909
  %122 = getelementptr inbounds [11 x i8], ptr %121, i64 0, i64 1, !dbg !1908
  store i8 1, ptr %122, align 1, !dbg !1910
  %123 = load i32, ptr @GameTime, align 4, !dbg !1911
  %124 = load ptr, ptr %9, align 8, !dbg !1912
  %125 = getelementptr inbounds nuw %struct.ai_local, ptr %124, i32 0, i32 11, !dbg !1913
  store i32 %123, ptr %125, align 4, !dbg !1914
  %126 = load i32, ptr @GameTime, align 4, !dbg !1915
  %127 = load ptr, ptr %9, align 8, !dbg !1916
  %128 = getelementptr inbounds nuw %struct.ai_local, ptr %127, i32 0, i32 13, !dbg !1917
  store i32 %126, ptr %128, align 4, !dbg !1918
  %129 = load i32, ptr @GameTime, align 4, !dbg !1919
  %130 = load ptr, ptr %9, align 8, !dbg !1920
  %131 = getelementptr inbounds nuw %struct.ai_local, ptr %130, i32 0, i32 12, !dbg !1921
  store i32 %129, ptr %131, align 4, !dbg !1922
  %132 = load i32, ptr %5, align 4, !dbg !1923
  %133 = icmp eq i32 %132, 132, !dbg !1925
  br i1 %133, label %143, label %134, !dbg !1926

134:                                              ; preds = %100
  %135 = load i32, ptr %5, align 4, !dbg !1927
  %136 = icmp eq i32 %135, 133, !dbg !1928
  br i1 %136, label %143, label %137, !dbg !1929

137:                                              ; preds = %134
  %138 = load i32, ptr %5, align 4, !dbg !1930
  %139 = icmp eq i32 %138, 131, !dbg !1931
  br i1 %139, label %143, label %140, !dbg !1932

140:                                              ; preds = %137
  %141 = load i32, ptr %5, align 4, !dbg !1933
  %142 = icmp eq i32 %141, 134, !dbg !1934
  br i1 %142, label %143, label %155, !dbg !1932

143:                                              ; preds = %140, %137, %134, %100
  %144 = load i32, ptr %6, align 4, !dbg !1935
  %145 = trunc i32 %144 to i16, !dbg !1935
  %146 = load ptr, ptr %8, align 8, !dbg !1937
  %147 = getelementptr inbounds nuw %struct.ai_static, ptr %146, i32 0, i32 2, !dbg !1938
  store i16 %145, ptr %147, align 4, !dbg !1939
  %148 = load i32, ptr %6, align 4, !dbg !1940
  %149 = load ptr, ptr %9, align 8, !dbg !1941
  %150 = getelementptr inbounds nuw %struct.ai_local, ptr %149, i32 0, i32 6, !dbg !1942
  store i32 %148, ptr %150, align 4, !dbg !1943
  %151 = load ptr, ptr %8, align 8, !dbg !1944
  %152 = getelementptr inbounds nuw %struct.ai_static, ptr %151, i32 0, i32 3, !dbg !1945
  store i16 -1, ptr %152, align 2, !dbg !1946
  %153 = load ptr, ptr %8, align 8, !dbg !1947
  %154 = getelementptr inbounds nuw %struct.ai_static, ptr %153, i32 0, i32 5, !dbg !1948
  store i8 0, ptr %154, align 2, !dbg !1949
  br label %155, !dbg !1950

155:                                              ; preds = %143, %140
  %156 = load ptr, ptr %8, align 8, !dbg !1951
  %157 = getelementptr inbounds nuw %struct.ai_static, ptr %156, i32 0, i32 1, !dbg !1952
  %158 = getelementptr inbounds [11 x i8], ptr %157, i64 0, i64 7, !dbg !1951
  store i8 0, ptr %158, align 1, !dbg !1953
  %159 = load ptr, ptr %10, align 8, !dbg !1954
  %160 = getelementptr inbounds nuw %struct.robot_info, ptr %159, i32 0, i32 30, !dbg !1956
  %161 = load i8, ptr %160, align 2, !dbg !1956
  %162 = sext i8 %161 to i32, !dbg !1954
  %163 = icmp eq i32 %162, 1, !dbg !1957
  br i1 %163, label %164, label %168, !dbg !1957

164:                                              ; preds = %155
  %165 = load ptr, ptr %8, align 8, !dbg !1958
  %166 = getelementptr inbounds nuw %struct.ai_static, ptr %165, i32 0, i32 1, !dbg !1959
  %167 = getelementptr inbounds [11 x i8], ptr %166, i64 0, i64 6, !dbg !1958
  store i8 1, ptr %167, align 1, !dbg !1960
  br label %172, !dbg !1958

168:                                              ; preds = %155
  %169 = load ptr, ptr %8, align 8, !dbg !1961
  %170 = getelementptr inbounds nuw %struct.ai_static, ptr %169, i32 0, i32 1, !dbg !1962
  %171 = getelementptr inbounds [11 x i8], ptr %170, i64 0, i64 6, !dbg !1961
  store i8 0, ptr %171, align 1, !dbg !1963
  br label %172

172:                                              ; preds = %168, %164
  %173 = load ptr, ptr %7, align 8, !dbg !1964
  %174 = getelementptr inbounds nuw %struct.object, ptr %173, i32 0, i32 21, !dbg !1965
  %175 = getelementptr inbounds nuw %struct.physics_info, ptr %174, i32 0, i32 8, !dbg !1966
  %176 = load i16, ptr %175, align 2, !dbg !1967
  %177 = zext i16 %176 to i32, !dbg !1967
  %178 = or i32 %177, 5, !dbg !1967
  %179 = trunc i32 %178 to i16, !dbg !1967
  store i16 %179, ptr %175, align 2, !dbg !1967
  %180 = load ptr, ptr %8, align 8, !dbg !1968
  %181 = getelementptr inbounds nuw %struct.ai_static, ptr %180, i32 0, i32 1, !dbg !1969
  %182 = getelementptr inbounds [11 x i8], ptr %181, i64 0, i64 8, !dbg !1968
  store i8 -1, ptr %182, align 1, !dbg !1970
  %183 = load ptr, ptr %8, align 8, !dbg !1971
  %184 = getelementptr inbounds nuw %struct.ai_static, ptr %183, i32 0, i32 6, !dbg !1972
  store i8 0, ptr %184, align 1, !dbg !1973
  %185 = load ptr, ptr %8, align 8, !dbg !1974
  %186 = getelementptr inbounds nuw %struct.ai_static, ptr %185, i32 0, i32 9, !dbg !1975
  store i32 0, ptr %186, align 4, !dbg !1976
  ret void, !dbg !1977
}

declare void @_Z8_mprintfiPKcz(i32 noundef, ptr noundef, ...) #2

; Function Attrs: mustprogress noinline ssp uwtable(sync)
define void @_Z16create_buddy_botv() #1 !dbg !1978 {
  %1 = alloca i32, align 4
  %2 = alloca %struct.vms_vector, align 4
    #dbg_declare(ptr %1, !1979, !DIExpression(), !1980)
    #dbg_declare(ptr %2, !1981, !DIExpression(), !1982)
  store i32 0, ptr %1, align 4, !dbg !1983
  br label %3, !dbg !1985

3:                                                ; preds = %16, %0
  %4 = load i32, ptr %1, align 4, !dbg !1986
  %5 = load i32, ptr @N_robot_types, align 4, !dbg !1988
  %6 = icmp slt i32 %4, %5, !dbg !1989
  br i1 %6, label %7, label %19, !dbg !1990

7:                                                ; preds = %3
  %8 = load i32, ptr %1, align 4, !dbg !1991
  %9 = sext i32 %8 to i64, !dbg !1993
  %10 = getelementptr inbounds [0 x %struct.robot_info], ptr @Robot_info, i64 0, i64 %9, !dbg !1993
  %11 = getelementptr inbounds nuw %struct.robot_info, ptr %10, i32 0, i32 37, !dbg !1994
  %12 = load i8, ptr %11, align 1, !dbg !1994
  %13 = icmp ne i8 %12, 0, !dbg !1993
  br i1 %13, label %14, label %15, !dbg !1993

14:                                               ; preds = %7
  br label %20, !dbg !1995

15:                                               ; preds = %7
  br label %16, !dbg !1994

16:                                               ; preds = %15
  %17 = load i32, ptr %1, align 4, !dbg !1996
  %18 = add nsw i32 %17, 1, !dbg !1996
  store i32 %18, ptr %1, align 4, !dbg !1996
  br label %3, !dbg !1997, !llvm.loop !1998

19:                                               ; preds = %3
  br label %20, !dbg !2001

20:                                               ; preds = %19, %14
  %21 = load i32, ptr %1, align 4, !dbg !2001
  %22 = load i32, ptr @N_robot_types, align 4, !dbg !2003
  %23 = icmp eq i32 %21, %22, !dbg !2004
  br i1 %23, label %24, label %25, !dbg !2004

24:                                               ; preds = %20
  call void (i32, ptr, ...) @_Z8_mprintfiPKcz(i32 noundef 0, ptr noundef @.str.1), !dbg !2005
  br label %38, !dbg !2007

25:                                               ; preds = %20
  %26 = load ptr, ptr @ConsoleObject, align 8, !dbg !2008
  %27 = getelementptr inbounds nuw %struct.object, ptr %26, i32 0, i32 9, !dbg !2009
  %28 = load i16, ptr %27, align 2, !dbg !2009
  %29 = sext i16 %28 to i64, !dbg !2010
  %30 = getelementptr inbounds [0 x %struct.segment], ptr @Segments, i64 0, i64 %29, !dbg !2010
  call void @_Z22compute_segment_centerP10vms_vectorP7segment(ptr noundef %2, ptr noundef %30), !dbg !2011
  %31 = load ptr, ptr @ConsoleObject, align 8, !dbg !2012
  %32 = getelementptr inbounds nuw %struct.object, ptr %31, i32 0, i32 9, !dbg !2013
  %33 = load i16, ptr %32, align 2, !dbg !2013
  %34 = sext i16 %33 to i64, !dbg !2014
  %35 = getelementptr inbounds [0 x %struct.segment], ptr @Segments, i64 0, i64 %34, !dbg !2014
  %36 = load i32, ptr %1, align 4, !dbg !2015
  %37 = call noundef ptr @_Z18create_morph_robotP7segmentP10vms_vectori(ptr noundef %35, ptr noundef %2, i32 noundef %36), !dbg !2016
  br label %38, !dbg !2017

38:                                               ; preds = %25, %24
  ret void, !dbg !2017
}

declare void @_Z22compute_segment_centerP10vms_vectorP7segment(ptr noundef, ptr noundef) #2

declare noundef ptr @_Z18create_morph_robotP7segmentP10vms_vectori(ptr noundef, ptr noundef, i32 noundef) #2

; Function Attrs: mustprogress noinline ssp uwtable(sync)
define void @_Z18init_boss_segmentsPsPiii(ptr noundef %0, ptr noundef %1, i32 noundef %2, i32 noundef %3) #1 !dbg !2018 {
  %5 = alloca ptr, align 8
  %6 = alloca ptr, align 8
  %7 = alloca i32, align 4
  %8 = alloca i32, align 4
  %9 = alloca i32, align 4
  %10 = alloca i32, align 4
  %11 = alloca i32, align 4
  %12 = alloca %struct.vms_vector, align 4
  %13 = alloca ptr, align 8
  %14 = alloca i32, align 4
  %15 = alloca i32, align 4
  %16 = alloca [256 x i32], align 4
  %17 = alloca i32, align 4
  %18 = alloca i32, align 4
  %19 = alloca ptr, align 8
  %20 = alloca i32, align 4
  store ptr %0, ptr %5, align 8
    #dbg_declare(ptr %5, !2022, !DIExpression(), !2023)
  store ptr %1, ptr %6, align 8
    #dbg_declare(ptr %6, !2024, !DIExpression(), !2025)
  store i32 %2, ptr %7, align 4
    #dbg_declare(ptr %7, !2026, !DIExpression(), !2027)
  store i32 %3, ptr %8, align 4
    #dbg_declare(ptr %8, !2028, !DIExpression(), !2029)
    #dbg_declare(ptr %9, !2030, !DIExpression(), !2031)
  store i32 -1, ptr %9, align 4, !dbg !2031
    #dbg_declare(ptr %10, !2032, !DIExpression(), !2033)
  %21 = load ptr, ptr %6, align 8, !dbg !2034
  store i32 0, ptr %21, align 4, !dbg !2035
  %22 = load i32, ptr %7, align 4, !dbg !2036
  %23 = icmp ne i32 %22, 0, !dbg !2036
  br i1 %23, label %24, label %25, !dbg !2036

24:                                               ; preds = %4
  call void (i32, ptr, ...) @_Z8_mprintfiPKcz(i32 noundef 0, ptr noundef @.str.2), !dbg !2038
  br label %25, !dbg !2038

25:                                               ; preds = %24, %4
  store i32 0, ptr %10, align 4, !dbg !2039
  br label %26, !dbg !2041

26:                                               ; preds = %56, %25
  %27 = load i32, ptr %10, align 4, !dbg !2042
  %28 = load i32, ptr @Highest_object_index, align 4, !dbg !2044
  %29 = icmp sle i32 %27, %28, !dbg !2045
  br i1 %29, label %30, label %59, !dbg !2046

30:                                               ; preds = %26
  %31 = load i32, ptr %10, align 4, !dbg !2047
  %32 = sext i32 %31 to i64, !dbg !2049
  %33 = getelementptr inbounds [0 x %struct.object], ptr @Objects, i64 0, i64 %32, !dbg !2049
  %34 = getelementptr inbounds nuw %struct.object, ptr %33, i32 0, i32 1, !dbg !2050
  %35 = load i8, ptr %34, align 4, !dbg !2050
  %36 = zext i8 %35 to i32, !dbg !2049
  %37 = icmp eq i32 %36, 2, !dbg !2051
  br i1 %37, label %38, label %55, !dbg !2052

38:                                               ; preds = %30
  %39 = load i32, ptr %10, align 4, !dbg !2053
  %40 = sext i32 %39 to i64, !dbg !2054
  %41 = getelementptr inbounds [0 x %struct.object], ptr @Objects, i64 0, i64 %40, !dbg !2054
  %42 = getelementptr inbounds nuw %struct.object, ptr %41, i32 0, i32 2, !dbg !2055
  %43 = load i8, ptr %42, align 1, !dbg !2055
  %44 = zext i8 %43 to i64, !dbg !2056
  %45 = getelementptr inbounds nuw [0 x %struct.robot_info], ptr @Robot_info, i64 0, i64 %44, !dbg !2056
  %46 = getelementptr inbounds nuw %struct.robot_info, ptr %45, i32 0, i32 36, !dbg !2057
  %47 = load i8, ptr %46, align 4, !dbg !2057
  %48 = icmp ne i8 %47, 0, !dbg !2058
  br i1 %48, label %49, label %55, !dbg !2052

49:                                               ; preds = %38
  %50 = load i32, ptr %9, align 4, !dbg !2059
  %51 = icmp ne i32 %50, -1, !dbg !2062
  br i1 %51, label %52, label %53, !dbg !2062

52:                                               ; preds = %49
  call void @_Z4Int3v(), !dbg !2063
  br label %53, !dbg !2063

53:                                               ; preds = %52, %49
  %54 = load i32, ptr %10, align 4, !dbg !2064
  store i32 %54, ptr %9, align 4, !dbg !2065
  br label %55, !dbg !2066

55:                                               ; preds = %53, %38, %30
  br label %56, !dbg !2067

56:                                               ; preds = %55
  %57 = load i32, ptr %10, align 4, !dbg !2068
  %58 = add nsw i32 %57, 1, !dbg !2068
  store i32 %58, ptr %10, align 4, !dbg !2068
  br label %26, !dbg !2069, !llvm.loop !2070

59:                                               ; preds = %26
  %60 = load i32, ptr %9, align 4, !dbg !2072
  %61 = icmp ne i32 %60, -1, !dbg !2074
  br i1 %61, label %62, label %303, !dbg !2074

62:                                               ; preds = %59
    #dbg_declare(ptr %11, !2075, !DIExpression(), !2077)
    #dbg_declare(ptr %12, !2078, !DIExpression(), !2079)
    #dbg_declare(ptr %13, !2080, !DIExpression(), !2081)
  %63 = load i32, ptr %9, align 4, !dbg !2082
  %64 = sext i32 %63 to i64, !dbg !2083
  %65 = getelementptr inbounds [0 x %struct.object], ptr @Objects, i64 0, i64 %64, !dbg !2083
  store ptr %65, ptr %13, align 8, !dbg !2081
    #dbg_declare(ptr %14, !2084, !DIExpression(), !2085)
    #dbg_declare(ptr %15, !2086, !DIExpression(), !2087)
    #dbg_declare(ptr %16, !2088, !DIExpression(), !2092)
    #dbg_declare(ptr %17, !2093, !DIExpression(), !2094)
  %66 = load ptr, ptr %13, align 8, !dbg !2095
  %67 = getelementptr inbounds nuw %struct.object, ptr %66, i32 0, i32 13, !dbg !2096
  %68 = load i32, ptr %67, align 4, !dbg !2096
  store i32 %68, ptr %17, align 4, !dbg !2097
  %69 = load ptr, ptr %13, align 8, !dbg !2098
  %70 = getelementptr inbounds nuw %struct.object, ptr %69, i32 0, i32 9, !dbg !2099
  %71 = load i16, ptr %70, align 2, !dbg !2099
  %72 = sext i16 %71 to i32, !dbg !2098
  store i32 %72, ptr %11, align 4, !dbg !2100
  %73 = load ptr, ptr %13, align 8, !dbg !2101
  %74 = getelementptr inbounds nuw %struct.object, ptr %73, i32 0, i32 11, !dbg !2102
  call void @llvm.memcpy.p0.p0.i64(ptr align 4 %12, ptr align 4 %74, i64 12, i1 false), !dbg !2103
  store i32 0, ptr %14, align 4, !dbg !2104
  store i32 0, ptr %15, align 4, !dbg !2105
  %75 = load i32, ptr %11, align 4, !dbg !2106
  %76 = load i32, ptr %14, align 4, !dbg !2107
  %77 = add nsw i32 %76, 1, !dbg !2107
  store i32 %77, ptr %14, align 4, !dbg !2107
  %78 = sext i32 %76 to i64, !dbg !2108
  %79 = getelementptr inbounds [256 x i32], ptr %16, i64 0, i64 %78, !dbg !2108
  store i32 %75, ptr %79, align 4, !dbg !2109
  %80 = load i32, ptr %11, align 4, !dbg !2110
  %81 = trunc i32 %80 to i16, !dbg !2110
  %82 = load ptr, ptr %5, align 8, !dbg !2111
  %83 = load ptr, ptr %6, align 8, !dbg !2112
  %84 = load i32, ptr %83, align 4, !dbg !2113
  %85 = add nsw i32 %84, 1, !dbg !2113
  store i32 %85, ptr %83, align 4, !dbg !2113
  %86 = sext i32 %84 to i64, !dbg !2111
  %87 = getelementptr inbounds i16, ptr %82, i64 %86, !dbg !2111
  store i16 %81, ptr %87, align 2, !dbg !2114
  %88 = load i32, ptr %11, align 4, !dbg !2115
  call void (i32, ptr, ...) @_Z8_mprintfiPKcz(i32 noundef 0, ptr noundef @.str.3, i32 noundef %88), !dbg !2115
  store i32 0, ptr %10, align 4, !dbg !2116
  br label %89, !dbg !2118

89:                                               ; preds = %97, %62
  %90 = load i32, ptr %10, align 4, !dbg !2119
  %91 = load i32, ptr @Highest_segment_index, align 4, !dbg !2121
  %92 = icmp sle i32 %90, %91, !dbg !2122
  br i1 %92, label %93, label %100, !dbg !2123

93:                                               ; preds = %89
  %94 = load i32, ptr %10, align 4, !dbg !2124
  %95 = sext i32 %94 to i64, !dbg !2125
  %96 = getelementptr inbounds [900 x i8], ptr @visited, i64 0, i64 %95, !dbg !2125
  store i8 0, ptr %96, align 1, !dbg !2126
  br label %97, !dbg !2125

97:                                               ; preds = %93
  %98 = load i32, ptr %10, align 4, !dbg !2127
  %99 = add nsw i32 %98, 1, !dbg !2127
  store i32 %99, ptr %10, align 4, !dbg !2127
  br label %89, !dbg !2128, !llvm.loop !2129

100:                                              ; preds = %89
  br label %101, !dbg !2131

101:                                              ; preds = %294, %100
  %102 = load i32, ptr %15, align 4, !dbg !2132
  %103 = load i32, ptr %14, align 4, !dbg !2133
  %104 = icmp ne i32 %102, %103, !dbg !2134
  br i1 %104, label %105, label %295, !dbg !2131

105:                                              ; preds = %101
    #dbg_declare(ptr %18, !2135, !DIExpression(), !2137)
    #dbg_declare(ptr %19, !2138, !DIExpression(), !2173)
  %106 = load i32, ptr %15, align 4, !dbg !2174
  %107 = add nsw i32 %106, 1, !dbg !2174
  store i32 %107, ptr %15, align 4, !dbg !2174
  %108 = sext i32 %106 to i64, !dbg !2175
  %109 = getelementptr inbounds [256 x i32], ptr %16, i64 0, i64 %108, !dbg !2175
  %110 = load i32, ptr %109, align 4, !dbg !2175
  %111 = sext i32 %110 to i64, !dbg !2176
  %112 = getelementptr inbounds [0 x %struct.segment], ptr @Segments, i64 0, i64 %111, !dbg !2176
  store ptr %112, ptr %19, align 8, !dbg !2173
  %113 = load i32, ptr %15, align 4, !dbg !2177
  %114 = and i32 %113, 255, !dbg !2177
  store i32 %114, ptr %15, align 4, !dbg !2177
  store i32 0, ptr %18, align 4, !dbg !2178
  br label %115, !dbg !2180

115:                                              ; preds = %291, %105
  %116 = load i32, ptr %18, align 4, !dbg !2181
  %117 = icmp slt i32 %116, 6, !dbg !2183
  br i1 %117, label %118, label %294, !dbg !2184

118:                                              ; preds = %115
    #dbg_declare(ptr %20, !2185, !DIExpression(), !2187)
  %119 = load ptr, ptr %19, align 8, !dbg !2188
  %120 = getelementptr inbounds nuw %struct.segment, ptr %119, i32 0, i32 1, !dbg !2188
  %121 = load i32, ptr %18, align 4, !dbg !2188
  %122 = sext i32 %121 to i64, !dbg !2188
  %123 = getelementptr inbounds [6 x i16], ptr %120, i64 0, i64 %122, !dbg !2188
  %124 = load i16, ptr %123, align 2, !dbg !2188
  %125 = sext i16 %124 to i32, !dbg !2188
  %126 = icmp eq i32 %125, -1, !dbg !2188
  br i1 %126, label %127, label %128, !dbg !2188

127:                                              ; preds = %118
  br label %157, !dbg !2188

128:                                              ; preds = %118
  %129 = load ptr, ptr %19, align 8, !dbg !2188
  %130 = getelementptr inbounds nuw %struct.segment, ptr %129, i32 0, i32 1, !dbg !2188
  %131 = load i32, ptr %18, align 4, !dbg !2188
  %132 = sext i32 %131 to i64, !dbg !2188
  %133 = getelementptr inbounds [6 x i16], ptr %130, i64 0, i64 %132, !dbg !2188
  %134 = load i16, ptr %133, align 2, !dbg !2188
  %135 = sext i16 %134 to i32, !dbg !2188
  %136 = icmp eq i32 %135, -2, !dbg !2188
  br i1 %136, label %137, label %138, !dbg !2188

137:                                              ; preds = %128
  br label %155, !dbg !2188

138:                                              ; preds = %128
  %139 = load ptr, ptr %19, align 8, !dbg !2188
  %140 = getelementptr inbounds nuw %struct.segment, ptr %139, i32 0, i32 0, !dbg !2188
  %141 = load i32, ptr %18, align 4, !dbg !2188
  %142 = sext i32 %141 to i64, !dbg !2188
  %143 = getelementptr inbounds [6 x %struct.side], ptr %140, i64 0, i64 %142, !dbg !2188
  %144 = getelementptr inbounds nuw %struct.side, ptr %143, i32 0, i32 2, !dbg !2188
  %145 = load i16, ptr %144, align 2, !dbg !2188
  %146 = sext i16 %145 to i32, !dbg !2188
  %147 = icmp eq i32 %146, -1, !dbg !2188
  br i1 %147, label %148, label %149, !dbg !2188

148:                                              ; preds = %138
  br label %153, !dbg !2188

149:                                              ; preds = %138
  %150 = load ptr, ptr %19, align 8, !dbg !2188
  %151 = load i32, ptr %18, align 4, !dbg !2188
  %152 = call noundef i32 @_Z15wall_is_doorwayP7segmenti(ptr noundef %150, i32 noundef %151), !dbg !2188
  br label %153, !dbg !2188

153:                                              ; preds = %149, %148
  %154 = phi i32 [ 5, %148 ], [ %152, %149 ], !dbg !2188
  br label %155, !dbg !2188

155:                                              ; preds = %153, %137
  %156 = phi i32 [ 8, %137 ], [ %154, %153 ], !dbg !2188
  br label %157, !dbg !2188

157:                                              ; preds = %155, %127
  %158 = phi i32 [ 2, %127 ], [ %156, %155 ], !dbg !2188
  store i32 %158, ptr %20, align 4, !dbg !2190
  %159 = and i32 %158, 1, !dbg !2191
  %160 = icmp ne i32 %159, 0, !dbg !2192
  br i1 %160, label %164, label %161, !dbg !2193

161:                                              ; preds = %157
  %162 = load i32, ptr %8, align 4, !dbg !2194
  %163 = icmp ne i32 %162, 0, !dbg !2194
  br i1 %163, label %164, label %290, !dbg !2193

164:                                              ; preds = %161, %157
  %165 = load ptr, ptr %19, align 8, !dbg !2195
  %166 = getelementptr inbounds nuw %struct.segment, ptr %165, i32 0, i32 1, !dbg !2195
  %167 = load i32, ptr %18, align 4, !dbg !2195
  %168 = sext i32 %167 to i64, !dbg !2195
  %169 = getelementptr inbounds [6 x i16], ptr %166, i64 0, i64 %168, !dbg !2195
  %170 = load i16, ptr %169, align 2, !dbg !2195
  %171 = sext i16 %170 to i32, !dbg !2195
  %172 = icmp sgt i32 %171, -1, !dbg !2195
  br i1 %172, label %173, label %180, !dbg !2195

173:                                              ; preds = %164
  %174 = load i32, ptr %8, align 4, !dbg !2198
  %175 = icmp ne i32 %174, 0, !dbg !2198
  br i1 %175, label %176, label %179, !dbg !2198

176:                                              ; preds = %173
  %177 = load i32, ptr %8, align 4, !dbg !2201
  %178 = add nsw i32 %177, -1, !dbg !2201
  store i32 %178, ptr %8, align 4, !dbg !2201
  br label %179, !dbg !2202

179:                                              ; preds = %176, %173
  br label %181, !dbg !2203

180:                                              ; preds = %164
  br label %291, !dbg !2204

181:                                              ; preds = %179
  %182 = load ptr, ptr %19, align 8, !dbg !2205
  %183 = getelementptr inbounds nuw %struct.segment, ptr %182, i32 0, i32 1, !dbg !2207
  %184 = load i32, ptr %18, align 4, !dbg !2208
  %185 = sext i32 %184 to i64, !dbg !2205
  %186 = getelementptr inbounds [6 x i16], ptr %183, i64 0, i64 %185, !dbg !2205
  %187 = load i16, ptr %186, align 2, !dbg !2205
  %188 = sext i16 %187 to i64, !dbg !2209
  %189 = getelementptr inbounds [900 x i8], ptr @visited, i64 0, i64 %188, !dbg !2209
  %190 = load i8, ptr %189, align 1, !dbg !2209
  %191 = sext i8 %190 to i32, !dbg !2209
  %192 = icmp eq i32 %191, 0, !dbg !2210
  br i1 %192, label %193, label %289, !dbg !2210

193:                                              ; preds = %181
  %194 = load ptr, ptr %19, align 8, !dbg !2211
  %195 = getelementptr inbounds nuw %struct.segment, ptr %194, i32 0, i32 1, !dbg !2213
  %196 = load i32, ptr %18, align 4, !dbg !2214
  %197 = sext i32 %196 to i64, !dbg !2211
  %198 = getelementptr inbounds [6 x i16], ptr %195, i64 0, i64 %197, !dbg !2211
  %199 = load i16, ptr %198, align 2, !dbg !2211
  %200 = sext i16 %199 to i32, !dbg !2211
  %201 = load i32, ptr %14, align 4, !dbg !2215
  %202 = add nsw i32 %201, 1, !dbg !2215
  store i32 %202, ptr %14, align 4, !dbg !2215
  %203 = sext i32 %201 to i64, !dbg !2216
  %204 = getelementptr inbounds [256 x i32], ptr %16, i64 0, i64 %203, !dbg !2216
  store i32 %200, ptr %204, align 4, !dbg !2217
  %205 = load ptr, ptr %19, align 8, !dbg !2218
  %206 = getelementptr inbounds nuw %struct.segment, ptr %205, i32 0, i32 1, !dbg !2219
  %207 = load i32, ptr %18, align 4, !dbg !2220
  %208 = sext i32 %207 to i64, !dbg !2218
  %209 = getelementptr inbounds [6 x i16], ptr %206, i64 0, i64 %208, !dbg !2218
  %210 = load i16, ptr %209, align 2, !dbg !2218
  %211 = sext i16 %210 to i64, !dbg !2221
  %212 = getelementptr inbounds [900 x i8], ptr @visited, i64 0, i64 %211, !dbg !2221
  store i8 1, ptr %212, align 1, !dbg !2222
  %213 = load i32, ptr %14, align 4, !dbg !2223
  %214 = and i32 %213, 255, !dbg !2223
  store i32 %214, ptr %14, align 4, !dbg !2223
  %215 = load i32, ptr %14, align 4, !dbg !2224
  %216 = load i32, ptr %15, align 4, !dbg !2226
  %217 = icmp sgt i32 %215, %216, !dbg !2227
  br i1 %217, label %218, label %226, !dbg !2227

218:                                              ; preds = %193
  %219 = load i32, ptr %14, align 4, !dbg !2228
  %220 = load i32, ptr %15, align 4, !dbg !2231
  %221 = add nsw i32 %220, 256, !dbg !2232
  %222 = sub nsw i32 %221, 1, !dbg !2233
  %223 = icmp eq i32 %219, %222, !dbg !2234
  br i1 %223, label %224, label %225, !dbg !2234

224:                                              ; preds = %218
  call void @_Z4Int3v(), !dbg !2235
  br label %225, !dbg !2235

225:                                              ; preds = %224, %218
  br label %235, !dbg !2236

226:                                              ; preds = %193
  %227 = load i32, ptr %14, align 4, !dbg !2237
  %228 = add nsw i32 %227, 256, !dbg !2239
  %229 = load i32, ptr %15, align 4, !dbg !2240
  %230 = add nsw i32 %229, 256, !dbg !2241
  %231 = sub nsw i32 %230, 1, !dbg !2242
  %232 = icmp eq i32 %228, %231, !dbg !2243
  br i1 %232, label %233, label %234, !dbg !2243

233:                                              ; preds = %226
  call void @_Z4Int3v(), !dbg !2244
  br label %234, !dbg !2244

234:                                              ; preds = %233, %226
  br label %235

235:                                              ; preds = %234, %225
  %236 = load i32, ptr %7, align 4, !dbg !2245
  %237 = icmp ne i32 %236, 0, !dbg !2245
  br i1 %237, label %238, label %249, !dbg !2247

238:                                              ; preds = %235
  %239 = load ptr, ptr %13, align 8, !dbg !2248
  %240 = load ptr, ptr %19, align 8, !dbg !2249
  %241 = getelementptr inbounds nuw %struct.segment, ptr %240, i32 0, i32 1, !dbg !2250
  %242 = load i32, ptr %18, align 4, !dbg !2251
  %243 = sext i32 %242 to i64, !dbg !2249
  %244 = getelementptr inbounds [6 x i16], ptr %241, i64 0, i64 %243, !dbg !2249
  %245 = load i16, ptr %244, align 2, !dbg !2249
  %246 = sext i16 %245 to i32, !dbg !2249
  %247 = call noundef i32 @_Z16boss_fits_in_segP6objecti(ptr noundef %239, i32 noundef %246), !dbg !2252
  %248 = icmp ne i32 %247, 0, !dbg !2252
  br i1 %248, label %249, label %288, !dbg !2247

249:                                              ; preds = %238, %235
  %250 = load ptr, ptr %19, align 8, !dbg !2253
  %251 = getelementptr inbounds nuw %struct.segment, ptr %250, i32 0, i32 1, !dbg !2255
  %252 = load i32, ptr %18, align 4, !dbg !2256
  %253 = sext i32 %252 to i64, !dbg !2253
  %254 = getelementptr inbounds [6 x i16], ptr %251, i64 0, i64 %253, !dbg !2253
  %255 = load i16, ptr %254, align 2, !dbg !2253
  %256 = load ptr, ptr %5, align 8, !dbg !2257
  %257 = load ptr, ptr %6, align 8, !dbg !2258
  %258 = load i32, ptr %257, align 4, !dbg !2259
  %259 = add nsw i32 %258, 1, !dbg !2259
  store i32 %259, ptr %257, align 4, !dbg !2259
  %260 = sext i32 %258 to i64, !dbg !2257
  %261 = getelementptr inbounds i16, ptr %256, i64 %260, !dbg !2257
  store i16 %255, ptr %261, align 2, !dbg !2260
  %262 = load i32, ptr %7, align 4, !dbg !2261
  %263 = icmp ne i32 %262, 0, !dbg !2261
  br i1 %263, label %264, label %272, !dbg !2261

264:                                              ; preds = %249
  %265 = load ptr, ptr %19, align 8, !dbg !2263
  %266 = getelementptr inbounds nuw %struct.segment, ptr %265, i32 0, i32 1, !dbg !2263
  %267 = load i32, ptr %18, align 4, !dbg !2263
  %268 = sext i32 %267 to i64, !dbg !2263
  %269 = getelementptr inbounds [6 x i16], ptr %266, i64 0, i64 %268, !dbg !2263
  %270 = load i16, ptr %269, align 2, !dbg !2263
  %271 = sext i16 %270 to i32, !dbg !2263
  call void (i32, ptr, ...) @_Z8_mprintfiPKcz(i32 noundef 0, ptr noundef @.str.3, i32 noundef %271), !dbg !2263
  br label %272, !dbg !2263

272:                                              ; preds = %264, %249
  %273 = load ptr, ptr %6, align 8, !dbg !2264
  %274 = load i32, ptr %273, align 4, !dbg !2266
  %275 = icmp sge i32 %274, 100, !dbg !2267
  br i1 %275, label %276, label %287, !dbg !2267

276:                                              ; preds = %272
  %277 = load ptr, ptr %19, align 8, !dbg !2268
  %278 = getelementptr inbounds nuw %struct.segment, ptr %277, i32 0, i32 1, !dbg !2268
  %279 = load i32, ptr %18, align 4, !dbg !2268
  %280 = sext i32 %279 to i64, !dbg !2268
  %281 = getelementptr inbounds [6 x i16], ptr %278, i64 0, i64 %280, !dbg !2268
  %282 = load i16, ptr %281, align 2, !dbg !2268
  %283 = sext i16 %282 to i32, !dbg !2268
  %284 = load i32, ptr @Highest_segment_index, align 4, !dbg !2268
  %285 = add nsw i32 %284, 1, !dbg !2268
  call void (i32, ptr, ...) @_Z8_mprintfiPKcz(i32 noundef 1, ptr noundef @.str.4, i32 noundef 100, i32 noundef %283, i32 noundef %285), !dbg !2268
  %286 = load i32, ptr %14, align 4, !dbg !2270
  store i32 %286, ptr %15, align 4, !dbg !2271
  br label %287, !dbg !2272

287:                                              ; preds = %276, %272
  br label %288, !dbg !2273

288:                                              ; preds = %287, %238
  br label %289, !dbg !2274

289:                                              ; preds = %288, %181
  br label %290, !dbg !2275

290:                                              ; preds = %289, %161
  br label %291, !dbg !2276

291:                                              ; preds = %290, %180
  %292 = load i32, ptr %18, align 4, !dbg !2277
  %293 = add nsw i32 %292, 1, !dbg !2277
  store i32 %293, ptr %18, align 4, !dbg !2277
  br label %115, !dbg !2278, !llvm.loop !2279

294:                                              ; preds = %115
  br label %101, !dbg !2131, !llvm.loop !2281

295:                                              ; preds = %101
  %296 = load i32, ptr %17, align 4, !dbg !2283
  %297 = load ptr, ptr %13, align 8, !dbg !2284
  %298 = getelementptr inbounds nuw %struct.object, ptr %297, i32 0, i32 13, !dbg !2285
  store i32 %296, ptr %298, align 4, !dbg !2286
  %299 = load ptr, ptr %13, align 8, !dbg !2287
  %300 = getelementptr inbounds nuw %struct.object, ptr %299, i32 0, i32 11, !dbg !2288
  call void @llvm.memcpy.p0.p0.i64(ptr align 4 %300, ptr align 4 %12, i64 12, i1 false), !dbg !2289
  %301 = load i32, ptr %9, align 4, !dbg !2290
  %302 = load i32, ptr %11, align 4, !dbg !2291
  call void @_Z10obj_relinkii(i32 noundef %301, i32 noundef %302), !dbg !2292
  br label %303, !dbg !2293

303:                                              ; preds = %295, %59
  ret void, !dbg !2294
}

; Function Attrs: nocallback nofree nounwind willreturn memory(argmem: readwrite)
declare void @llvm.memcpy.p0.p0.i64(ptr noalias nocapture writeonly, ptr noalias nocapture readonly, i64, i1 immarg) #3

declare noundef i32 @_Z15wall_is_doorwayP7segmenti(ptr noundef, i32 noundef) #2

; Function Attrs: mustprogress noinline ssp uwtable(sync)
define noundef i32 @_Z16boss_fits_in_segP6objecti(ptr noundef %0, i32 noundef %1) #1 !dbg !2295 {
  %3 = alloca i32, align 4
  %4 = alloca ptr, align 8
  %5 = alloca i32, align 4
  %6 = alloca %struct.vms_vector, align 4
  %7 = alloca i32, align 4
  %8 = alloca i32, align 4
  %9 = alloca %struct.vms_vector, align 4
  store ptr %0, ptr %4, align 8
    #dbg_declare(ptr %4, !2298, !DIExpression(), !2299)
  store i32 %1, ptr %5, align 4
    #dbg_declare(ptr %5, !2300, !DIExpression(), !2301)
    #dbg_declare(ptr %6, !2302, !DIExpression(), !2303)
    #dbg_declare(ptr %7, !2304, !DIExpression(), !2305)
  %10 = load ptr, ptr %4, align 8, !dbg !2306
  %11 = ptrtoint ptr %10 to i64, !dbg !2307
  %12 = sub i64 %11, ptrtoint (ptr @Objects to i64), !dbg !2307
  %13 = sdiv exact i64 %12, 268, !dbg !2307
  %14 = trunc i64 %13 to i32, !dbg !2306
  store i32 %14, ptr %7, align 4, !dbg !2305
    #dbg_declare(ptr %8, !2308, !DIExpression(), !2309)
  %15 = load i32, ptr %5, align 4, !dbg !2310
  %16 = sext i32 %15 to i64, !dbg !2311
  %17 = getelementptr inbounds [0 x %struct.segment], ptr @Segments, i64 0, i64 %16, !dbg !2311
  call void @_Z22compute_segment_centerP10vms_vectorP7segment(ptr noundef %6, ptr noundef %17), !dbg !2312
  store i32 0, ptr %8, align 4, !dbg !2313
  br label %18, !dbg !2315

18:                                               ; preds = %60, %2
  %19 = load i32, ptr %8, align 4, !dbg !2316
  %20 = icmp slt i32 %19, 9, !dbg !2318
  br i1 %20, label %21, label %63, !dbg !2319

21:                                               ; preds = %18
  %22 = load i32, ptr %8, align 4, !dbg !2320
  %23 = icmp sgt i32 %22, 0, !dbg !2323
  br i1 %23, label %24, label %49, !dbg !2323

24:                                               ; preds = %21
    #dbg_declare(ptr %9, !2324, !DIExpression(), !2326)
  %25 = load i32, ptr %8, align 4, !dbg !2327
  %26 = sub nsw i32 %25, 1, !dbg !2327
  %27 = icmp sge i32 %26, 0, !dbg !2327
  br i1 %27, label %28, label %32, !dbg !2327

28:                                               ; preds = %24
  %29 = load i32, ptr %8, align 4, !dbg !2327
  %30 = sub nsw i32 %29, 1, !dbg !2327
  %31 = icmp slt i32 %30, 8, !dbg !2327
  br label %32

32:                                               ; preds = %28, %24
  %33 = phi i1 [ false, %24 ], [ %31, %28 ], !dbg !2328
  %34 = zext i1 %33 to i32, !dbg !2327
  call void @_Z7_AssertiPKcS0_i(i32 noundef %34, ptr noundef @.str.35, ptr noundef @.str.8, i32 noundef 2803), !dbg !2327
  %35 = load i32, ptr %5, align 4, !dbg !2329
  %36 = sext i32 %35 to i64, !dbg !2330
  %37 = getelementptr inbounds [0 x %struct.segment], ptr @Segments, i64 0, i64 %36, !dbg !2330
  %38 = getelementptr inbounds nuw %struct.segment, ptr %37, i32 0, i32 2, !dbg !2331
  %39 = load i32, ptr %8, align 4, !dbg !2332
  %40 = sub nsw i32 %39, 1, !dbg !2333
  %41 = sext i32 %40 to i64, !dbg !2330
  %42 = getelementptr inbounds [8 x i16], ptr %38, i64 0, i64 %41, !dbg !2330
  %43 = load i16, ptr %42, align 2, !dbg !2330
  %44 = sext i16 %43 to i64, !dbg !2334
  %45 = getelementptr inbounds [0 x %struct.vms_vector], ptr @Vertices, i64 0, i64 %44, !dbg !2334
  call void @llvm.memcpy.p0.p0.i64(ptr align 4 %9, ptr align 4 %45, i64 12, i1 false), !dbg !2335
  %46 = load ptr, ptr %4, align 8, !dbg !2336
  %47 = getelementptr inbounds nuw %struct.object, ptr %46, i32 0, i32 11, !dbg !2337
  %48 = call noundef ptr @_Z10vm_vec_avgP10vms_vectorS0_S0_(ptr noundef %47, ptr noundef %9, ptr noundef %6), !dbg !2338
  br label %52, !dbg !2339

49:                                               ; preds = %21
  %50 = load ptr, ptr %4, align 8, !dbg !2340
  %51 = getelementptr inbounds nuw %struct.object, ptr %50, i32 0, i32 11, !dbg !2341
  call void @llvm.memcpy.p0.p0.i64(ptr align 4 %51, ptr align 4 %6, i64 12, i1 false), !dbg !2342
  br label %52

52:                                               ; preds = %49, %32
  %53 = load i32, ptr %7, align 4, !dbg !2343
  %54 = load i32, ptr %5, align 4, !dbg !2344
  call void @_Z10obj_relinkii(i32 noundef %53, i32 noundef %54), !dbg !2345
  %55 = load ptr, ptr %4, align 8, !dbg !2346
  %56 = call noundef i32 @_Z22object_intersects_wallP6object(ptr noundef %55), !dbg !2348
  %57 = icmp ne i32 %56, 0, !dbg !2348
  br i1 %57, label %59, label %58, !dbg !2349

58:                                               ; preds = %52
  store i32 1, ptr %3, align 4, !dbg !2350
  br label %64, !dbg !2350

59:                                               ; preds = %52
  br label %60, !dbg !2351

60:                                               ; preds = %59
  %61 = load i32, ptr %8, align 4, !dbg !2352
  %62 = add nsw i32 %61, 1, !dbg !2352
  store i32 %62, ptr %8, align 4, !dbg !2352
  br label %18, !dbg !2353, !llvm.loop !2354

63:                                               ; preds = %18
  store i32 0, ptr %3, align 4, !dbg !2356
  br label %64, !dbg !2356

64:                                               ; preds = %63, %58
  %65 = load i32, ptr %3, align 4, !dbg !2357
  ret i32 %65, !dbg !2357
}

declare void @_Z10obj_relinkii(i32 noundef, i32 noundef) #2

; Function Attrs: mustprogress noinline ssp uwtable(sync)
define void @_Z15init_ai_objectsv() #1 !dbg !2358 {
  %1 = alloca i32, align 4
  %2 = alloca ptr, align 8
    #dbg_declare(ptr %1, !2359, !DIExpression(), !2360)
  store ptr @Point_segs, ptr @Point_segs_free_ptr, align 8, !dbg !2361
  store i32 0, ptr %1, align 4, !dbg !2362
  br label %3, !dbg !2364

3:                                                ; preds = %28, %0
  %4 = load i32, ptr %1, align 4, !dbg !2365
  %5 = icmp slt i32 %4, 350, !dbg !2367
  br i1 %5, label %6, label %31, !dbg !2368

6:                                                ; preds = %3
    #dbg_declare(ptr %2, !2369, !DIExpression(), !2371)
  %7 = load i32, ptr %1, align 4, !dbg !2372
  %8 = sext i32 %7 to i64, !dbg !2373
  %9 = getelementptr inbounds [0 x %struct.object], ptr @Objects, i64 0, i64 %8, !dbg !2373
  store ptr %9, ptr %2, align 8, !dbg !2371
  %10 = load ptr, ptr %2, align 8, !dbg !2374
  %11 = getelementptr inbounds nuw %struct.object, ptr %10, i32 0, i32 5, !dbg !2376
  %12 = load i8, ptr %11, align 2, !dbg !2376
  %13 = zext i8 %12 to i32, !dbg !2374
  %14 = icmp eq i32 %13, 1, !dbg !2377
  br i1 %14, label %15, label %27, !dbg !2377

15:                                               ; preds = %6
  %16 = load i32, ptr %1, align 4, !dbg !2378
  %17 = load ptr, ptr %2, align 8, !dbg !2379
  %18 = getelementptr inbounds nuw %struct.object, ptr %17, i32 0, i32 22, !dbg !2380
  %19 = getelementptr inbounds nuw %struct.ai_static, ptr %18, i32 0, i32 0, !dbg !2381
  %20 = load i8, ptr %19, align 4, !dbg !2381
  %21 = zext i8 %20 to i32, !dbg !2379
  %22 = load ptr, ptr %2, align 8, !dbg !2382
  %23 = getelementptr inbounds nuw %struct.object, ptr %22, i32 0, i32 22, !dbg !2383
  %24 = getelementptr inbounds nuw %struct.ai_static, ptr %23, i32 0, i32 2, !dbg !2384
  %25 = load i16, ptr %24, align 4, !dbg !2384
  %26 = sext i16 %25 to i32, !dbg !2382
  call void @_Z14init_ai_objectiii(i32 noundef %16, i32 noundef %21, i32 noundef %26), !dbg !2385
  br label %27, !dbg !2385

27:                                               ; preds = %15, %6
  br label %28, !dbg !2386

28:                                               ; preds = %27
  %29 = load i32, ptr %1, align 4, !dbg !2387
  %30 = add nsw i32 %29, 1, !dbg !2387
  store i32 %30, ptr %1, align 4, !dbg !2387
  br label %3, !dbg !2388, !llvm.loop !2389

31:                                               ; preds = %3
  call void @_Z18init_boss_segmentsPsPiii(ptr noundef @Boss_gate_segs, ptr noundef @Num_boss_gate_segs, i32 noundef 0, i32 noundef 0), !dbg !2391
  call void @_Z18init_boss_segmentsPsPiii(ptr noundef @Boss_teleport_segs, ptr noundef @Num_boss_teleport_segs, i32 noundef 1, i32 noundef 0), !dbg !2392
  %32 = load i32, ptr @Num_boss_teleport_segs, align 4, !dbg !2393
  %33 = icmp eq i32 %32, 1, !dbg !2395
  br i1 %33, label %34, label %35, !dbg !2395

34:                                               ; preds = %31
  call void @_Z18init_boss_segmentsPsPiii(ptr noundef @Boss_teleport_segs, ptr noundef @Num_boss_teleport_segs, i32 noundef 1, i32 noundef 1), !dbg !2396
  br label %35, !dbg !2396

35:                                               ; preds = %34, %31
  store i8 0, ptr @Boss_dying_sound_playing, align 1, !dbg !2397
  store i8 0, ptr @Boss_dying, align 1, !dbg !2398
  %36 = load i32, ptr @Difficulty_level, align 4, !dbg !2399
  %37 = call noundef i32 @_Z3i2fi(i32 noundef 2), !dbg !2400
  %38 = mul nsw i32 %36, %37, !dbg !2401
  %39 = sdiv i32 %38, 3, !dbg !2402
  %40 = sub nsw i32 262144, %39, !dbg !2403
  store i32 %40, ptr @Gate_interval, align 4, !dbg !2404
  store i32 1, ptr @Ai_initialized, align 4, !dbg !2405
  call void @_Z17ai_do_cloak_stuffv(), !dbg !2406
  call void @_Z20init_buddy_for_levelv(), !dbg !2407
  %41 = load i32, ptr @Current_level_num, align 4, !dbg !2408
  %42 = load i32, ptr @Last_level, align 4, !dbg !2410
  %43 = icmp eq i32 %41, %42, !dbg !2411
  br i1 %43, label %44, label %45, !dbg !2411

44:                                               ; preds = %35
  store i32 655360, ptr @Boss_teleport_interval, align 4, !dbg !2412
  store i32 983040, ptr @Boss_cloak_interval, align 4, !dbg !2414
  br label %46, !dbg !2415

45:                                               ; preds = %35
  store i32 458752, ptr @Boss_teleport_interval, align 4, !dbg !2416
  store i32 655360, ptr @Boss_cloak_interval, align 4, !dbg !2418
  br label %46

46:                                               ; preds = %45, %44
  ret void, !dbg !2419
}

; Function Attrs: mustprogress noinline nounwind ssp uwtable(sync)
define linkonce_odr noundef i32 @_Z3i2fi(i32 noundef %0) #0 !dbg !2420 {
  %2 = alloca i32, align 4
  store i32 %0, ptr %2, align 4
    #dbg_declare(ptr %2, !2423, !DIExpression(), !2424)
  %3 = load i32, ptr %2, align 4, !dbg !2425
  %4 = shl i32 %3, 16, !dbg !2426
  ret i32 %4, !dbg !2427
}

declare void @_Z17ai_do_cloak_stuffv() #2

declare void @_Z20init_buddy_for_levelv() #2

; Function Attrs: mustprogress noinline nounwind ssp uwtable(sync)
define void @_Z12do_lunacy_onv() #0 !dbg !2428 {
  %1 = alloca i32, align 4
    #dbg_declare(ptr %1, !2429, !DIExpression(), !2430)
  %2 = load i32, ptr @Lunacy, align 4, !dbg !2431
  %3 = icmp ne i32 %2, 0, !dbg !2431
  br i1 %3, label %4, label %5, !dbg !2431

4:                                                ; preds = %0
  br label %75, !dbg !2433

5:                                                ; preds = %0
  store i32 1, ptr @Lunacy, align 4, !dbg !2434
  %6 = load i32, ptr @Difficulty_level, align 4, !dbg !2435
  store i32 %6, ptr @Diff_save, align 4, !dbg !2436
  store i32 4, ptr @Difficulty_level, align 4, !dbg !2437
  store i32 0, ptr %1, align 4, !dbg !2438
  br label %7, !dbg !2440

7:                                                ; preds = %71, %5
  %8 = load i32, ptr %1, align 4, !dbg !2441
  %9 = icmp slt i32 %8, 85, !dbg !2443
  br i1 %9, label %10, label %74, !dbg !2444

10:                                               ; preds = %7
  %11 = load i32, ptr %1, align 4, !dbg !2445
  %12 = sext i32 %11 to i64, !dbg !2447
  %13 = getelementptr inbounds [0 x %struct.robot_info], ptr @Robot_info, i64 0, i64 %12, !dbg !2447
  %14 = getelementptr inbounds nuw %struct.robot_info, ptr %13, i32 0, i32 23, !dbg !2448
  %15 = getelementptr inbounds [5 x i32], ptr %14, i64 0, i64 4, !dbg !2447
  %16 = load i32, ptr %15, align 4, !dbg !2447
  %17 = load i32, ptr %1, align 4, !dbg !2449
  %18 = sext i32 %17 to i64, !dbg !2450
  %19 = getelementptr inbounds [85 x i32], ptr @Firing_wait_copy, i64 0, i64 %18, !dbg !2450
  store i32 %16, ptr %19, align 4, !dbg !2451
  %20 = load i32, ptr %1, align 4, !dbg !2452
  %21 = sext i32 %20 to i64, !dbg !2453
  %22 = getelementptr inbounds [0 x %struct.robot_info], ptr @Robot_info, i64 0, i64 %21, !dbg !2453
  %23 = getelementptr inbounds nuw %struct.robot_info, ptr %22, i32 0, i32 24, !dbg !2454
  %24 = getelementptr inbounds [5 x i32], ptr %23, i64 0, i64 4, !dbg !2453
  %25 = load i32, ptr %24, align 4, !dbg !2453
  %26 = load i32, ptr %1, align 4, !dbg !2455
  %27 = sext i32 %26 to i64, !dbg !2456
  %28 = getelementptr inbounds [85 x i32], ptr @Firing_wait2_copy, i64 0, i64 %27, !dbg !2456
  store i32 %25, ptr %28, align 4, !dbg !2457
  %29 = load i32, ptr %1, align 4, !dbg !2458
  %30 = sext i32 %29 to i64, !dbg !2459
  %31 = getelementptr inbounds [0 x %struct.robot_info], ptr @Robot_info, i64 0, i64 %30, !dbg !2459
  %32 = getelementptr inbounds nuw %struct.robot_info, ptr %31, i32 0, i32 28, !dbg !2460
  %33 = getelementptr inbounds [5 x i8], ptr %32, i64 0, i64 4, !dbg !2459
  %34 = load i8, ptr %33, align 4, !dbg !2459
  %35 = load i32, ptr %1, align 4, !dbg !2461
  %36 = sext i32 %35 to i64, !dbg !2462
  %37 = getelementptr inbounds [85 x i8], ptr @Rapidfire_count_copy, i64 0, i64 %36, !dbg !2462
  store i8 %34, ptr %37, align 1, !dbg !2463
  %38 = load i32, ptr %1, align 4, !dbg !2464
  %39 = sext i32 %38 to i64, !dbg !2465
  %40 = getelementptr inbounds [0 x %struct.robot_info], ptr @Robot_info, i64 0, i64 %39, !dbg !2465
  %41 = getelementptr inbounds nuw %struct.robot_info, ptr %40, i32 0, i32 23, !dbg !2466
  %42 = getelementptr inbounds [5 x i32], ptr %41, i64 0, i64 1, !dbg !2465
  %43 = load i32, ptr %42, align 4, !dbg !2465
  %44 = load i32, ptr %1, align 4, !dbg !2467
  %45 = sext i32 %44 to i64, !dbg !2468
  %46 = getelementptr inbounds [0 x %struct.robot_info], ptr @Robot_info, i64 0, i64 %45, !dbg !2468
  %47 = getelementptr inbounds nuw %struct.robot_info, ptr %46, i32 0, i32 23, !dbg !2469
  %48 = getelementptr inbounds [5 x i32], ptr %47, i64 0, i64 4, !dbg !2468
  store i32 %43, ptr %48, align 4, !dbg !2470
  %49 = load i32, ptr %1, align 4, !dbg !2471
  %50 = sext i32 %49 to i64, !dbg !2472
  %51 = getelementptr inbounds [0 x %struct.robot_info], ptr @Robot_info, i64 0, i64 %50, !dbg !2472
  %52 = getelementptr inbounds nuw %struct.robot_info, ptr %51, i32 0, i32 24, !dbg !2473
  %53 = getelementptr inbounds [5 x i32], ptr %52, i64 0, i64 1, !dbg !2472
  %54 = load i32, ptr %53, align 4, !dbg !2472
  %55 = load i32, ptr %1, align 4, !dbg !2474
  %56 = sext i32 %55 to i64, !dbg !2475
  %57 = getelementptr inbounds [0 x %struct.robot_info], ptr @Robot_info, i64 0, i64 %56, !dbg !2475
  %58 = getelementptr inbounds nuw %struct.robot_info, ptr %57, i32 0, i32 24, !dbg !2476
  %59 = getelementptr inbounds [5 x i32], ptr %58, i64 0, i64 4, !dbg !2475
  store i32 %54, ptr %59, align 4, !dbg !2477
  %60 = load i32, ptr %1, align 4, !dbg !2478
  %61 = sext i32 %60 to i64, !dbg !2479
  %62 = getelementptr inbounds [0 x %struct.robot_info], ptr @Robot_info, i64 0, i64 %61, !dbg !2479
  %63 = getelementptr inbounds nuw %struct.robot_info, ptr %62, i32 0, i32 28, !dbg !2480
  %64 = getelementptr inbounds [5 x i8], ptr %63, i64 0, i64 1, !dbg !2479
  %65 = load i8, ptr %64, align 1, !dbg !2479
  %66 = load i32, ptr %1, align 4, !dbg !2481
  %67 = sext i32 %66 to i64, !dbg !2482
  %68 = getelementptr inbounds [0 x %struct.robot_info], ptr @Robot_info, i64 0, i64 %67, !dbg !2482
  %69 = getelementptr inbounds nuw %struct.robot_info, ptr %68, i32 0, i32 28, !dbg !2483
  %70 = getelementptr inbounds [5 x i8], ptr %69, i64 0, i64 4, !dbg !2482
  store i8 %65, ptr %70, align 4, !dbg !2484
  br label %71, !dbg !2485

71:                                               ; preds = %10
  %72 = load i32, ptr %1, align 4, !dbg !2486
  %73 = add nsw i32 %72, 1, !dbg !2486
  store i32 %73, ptr %1, align 4, !dbg !2486
  br label %7, !dbg !2487, !llvm.loop !2488

74:                                               ; preds = %7
  br label %75, !dbg !2490

75:                                               ; preds = %74, %4
  ret void, !dbg !2490
}

; Function Attrs: mustprogress noinline nounwind ssp uwtable(sync)
define void @_Z13do_lunacy_offv() #0 !dbg !2491 {
  %1 = alloca i32, align 4
    #dbg_declare(ptr %1, !2492, !DIExpression(), !2493)
  %2 = load i32, ptr @Lunacy, align 4, !dbg !2494
  %3 = icmp ne i32 %2, 0, !dbg !2494
  br i1 %3, label %5, label %4, !dbg !2496

4:                                                ; preds = %0
  br label %42, !dbg !2497

5:                                                ; preds = %0
  store i32 0, ptr @Lunacy, align 4, !dbg !2498
  store i32 0, ptr %1, align 4, !dbg !2499
  br label %6, !dbg !2501

6:                                                ; preds = %37, %5
  %7 = load i32, ptr %1, align 4, !dbg !2502
  %8 = icmp slt i32 %7, 85, !dbg !2504
  br i1 %8, label %9, label %40, !dbg !2505

9:                                                ; preds = %6
  %10 = load i32, ptr %1, align 4, !dbg !2506
  %11 = sext i32 %10 to i64, !dbg !2508
  %12 = getelementptr inbounds [85 x i32], ptr @Firing_wait_copy, i64 0, i64 %11, !dbg !2508
  %13 = load i32, ptr %12, align 4, !dbg !2508
  %14 = load i32, ptr %1, align 4, !dbg !2509
  %15 = sext i32 %14 to i64, !dbg !2510
  %16 = getelementptr inbounds [0 x %struct.robot_info], ptr @Robot_info, i64 0, i64 %15, !dbg !2510
  %17 = getelementptr inbounds nuw %struct.robot_info, ptr %16, i32 0, i32 23, !dbg !2511
  %18 = getelementptr inbounds [5 x i32], ptr %17, i64 0, i64 4, !dbg !2510
  store i32 %13, ptr %18, align 4, !dbg !2512
  %19 = load i32, ptr %1, align 4, !dbg !2513
  %20 = sext i32 %19 to i64, !dbg !2514
  %21 = getelementptr inbounds [85 x i32], ptr @Firing_wait2_copy, i64 0, i64 %20, !dbg !2514
  %22 = load i32, ptr %21, align 4, !dbg !2514
  %23 = load i32, ptr %1, align 4, !dbg !2515
  %24 = sext i32 %23 to i64, !dbg !2516
  %25 = getelementptr inbounds [0 x %struct.robot_info], ptr @Robot_info, i64 0, i64 %24, !dbg !2516
  %26 = getelementptr inbounds nuw %struct.robot_info, ptr %25, i32 0, i32 24, !dbg !2517
  %27 = getelementptr inbounds [5 x i32], ptr %26, i64 0, i64 4, !dbg !2516
  store i32 %22, ptr %27, align 4, !dbg !2518
  %28 = load i32, ptr %1, align 4, !dbg !2519
  %29 = sext i32 %28 to i64, !dbg !2520
  %30 = getelementptr inbounds [85 x i8], ptr @Rapidfire_count_copy, i64 0, i64 %29, !dbg !2520
  %31 = load i8, ptr %30, align 1, !dbg !2520
  %32 = load i32, ptr %1, align 4, !dbg !2521
  %33 = sext i32 %32 to i64, !dbg !2522
  %34 = getelementptr inbounds [0 x %struct.robot_info], ptr @Robot_info, i64 0, i64 %33, !dbg !2522
  %35 = getelementptr inbounds nuw %struct.robot_info, ptr %34, i32 0, i32 28, !dbg !2523
  %36 = getelementptr inbounds [5 x i8], ptr %35, i64 0, i64 4, !dbg !2522
  store i8 %31, ptr %36, align 4, !dbg !2524
  br label %37, !dbg !2525

37:                                               ; preds = %9
  %38 = load i32, ptr %1, align 4, !dbg !2526
  %39 = add nsw i32 %38, 1, !dbg !2526
  store i32 %39, ptr %1, align 4, !dbg !2526
  br label %6, !dbg !2527, !llvm.loop !2528

40:                                               ; preds = %6
  %41 = load i32, ptr @Diff_save, align 4, !dbg !2530
  store i32 %41, ptr @Difficulty_level, align 4, !dbg !2531
  br label %42, !dbg !2532

42:                                               ; preds = %40, %4
  ret void, !dbg !2532
}

; Function Attrs: mustprogress noinline nounwind ssp uwtable(sync)
define void @_Z23set_rotvel_and_saturatePii(ptr noundef %0, i32 noundef %1) #0 !dbg !2533 {
  %3 = alloca ptr, align 8
  %4 = alloca i32, align 4
  store ptr %0, ptr %3, align 8
    #dbg_declare(ptr %3, !2537, !DIExpression(), !2538)
  store i32 %1, ptr %4, align 4
    #dbg_declare(ptr %4, !2539, !DIExpression(), !2540)
  %5 = load i32, ptr %4, align 4, !dbg !2541
  %6 = load ptr, ptr %3, align 8, !dbg !2543
  %7 = load i32, ptr %6, align 4, !dbg !2544
  %8 = xor i32 %5, %7, !dbg !2545
  %9 = icmp slt i32 %8, 0, !dbg !2546
  br i1 %9, label %10, label %22, !dbg !2546

10:                                               ; preds = %2
  %11 = load i32, ptr %4, align 4, !dbg !2547
  %12 = call i32 @llvm.abs.i32(i32 %11, i1 true), !dbg !2550
  %13 = icmp slt i32 %12, 8192, !dbg !2551
  br i1 %13, label %14, label %18, !dbg !2551

14:                                               ; preds = %10
  %15 = load i32, ptr %4, align 4, !dbg !2552
  %16 = sdiv i32 %15, 4, !dbg !2554
  %17 = load ptr, ptr %3, align 8, !dbg !2555
  store i32 %16, ptr %17, align 4, !dbg !2556
  br label %21, !dbg !2557

18:                                               ; preds = %10
  %19 = load i32, ptr %4, align 4, !dbg !2558
  %20 = load ptr, ptr %3, align 8, !dbg !2559
  store i32 %19, ptr %20, align 4, !dbg !2560
  br label %21

21:                                               ; preds = %18, %14
  br label %25, !dbg !2561

22:                                               ; preds = %2
  %23 = load i32, ptr %4, align 4, !dbg !2562
  %24 = load ptr, ptr %3, align 8, !dbg !2564
  store i32 %23, ptr %24, align 4, !dbg !2565
  br label %25

25:                                               ; preds = %22, %21
  ret void, !dbg !2566
}

; Function Attrs: nocallback nofree nosync nounwind speculatable willreturn memory(none)
declare i32 @llvm.abs.i32(i32, i1 immarg) #4

; Function Attrs: mustprogress noinline ssp uwtable(sync)
define void @_Z22ai_turn_towards_vectorP10vms_vectorP6objecti(ptr noundef %0, ptr noundef %1, i32 noundef %2) #1 !dbg !2567 {
  %4 = alloca ptr, align 8
  %5 = alloca ptr, align 8
  %6 = alloca i32, align 4
  %7 = alloca %struct.vms_vector, align 4
  %8 = alloca i32, align 4
  %9 = alloca i32, align 4
  %10 = alloca i32, align 4
  %11 = alloca %struct.vms_vector, align 4
  %12 = alloca i32, align 4
  store ptr %0, ptr %4, align 8
    #dbg_declare(ptr %4, !2571, !DIExpression(), !2572)
  store ptr %1, ptr %5, align 8
    #dbg_declare(ptr %5, !2573, !DIExpression(), !2574)
  store i32 %2, ptr %6, align 4
    #dbg_declare(ptr %6, !2575, !DIExpression(), !2576)
    #dbg_declare(ptr %7, !2577, !DIExpression(), !2578)
    #dbg_declare(ptr %8, !2579, !DIExpression(), !2580)
  %13 = load i32, ptr %6, align 4, !dbg !2581
  %14 = icmp eq i32 %13, 0, !dbg !2583
  br i1 %14, label %15, label %16, !dbg !2583

15:                                               ; preds = %3
  br label %87, !dbg !2584

16:                                               ; preds = %3
  %17 = load ptr, ptr %5, align 8, !dbg !2585
  %18 = getelementptr inbounds nuw %struct.object, ptr %17, i32 0, i32 2, !dbg !2587
  %19 = load i8, ptr %18, align 1, !dbg !2587
  %20 = zext i8 %19 to i32, !dbg !2585
  %21 = icmp eq i32 %20, 14, !dbg !2588
  br i1 %21, label %22, label %32, !dbg !2589

22:                                               ; preds = %16
  %23 = load ptr, ptr %5, align 8, !dbg !2590
  %24 = getelementptr inbounds nuw %struct.object, ptr %23, i32 0, i32 1, !dbg !2591
  %25 = load i8, ptr %24, align 4, !dbg !2591
  %26 = zext i8 %25 to i32, !dbg !2590
  %27 = icmp eq i32 %26, 2, !dbg !2592
  br i1 %27, label %28, label %32, !dbg !2589

28:                                               ; preds = %22
  %29 = load ptr, ptr %4, align 8, !dbg !2593
  %30 = load ptr, ptr %5, align 8, !dbg !2595
  %31 = load i32, ptr %6, align 4, !dbg !2596
  call void @_Z27physics_turn_towards_vectorP10vms_vectorP6objecti(ptr noundef %29, ptr noundef %30, i32 noundef %31), !dbg !2597
  br label %87, !dbg !2598

32:                                               ; preds = %22, %16
  %33 = load ptr, ptr %4, align 8, !dbg !2599
  call void @llvm.memcpy.p0.p0.i64(ptr align 4 %7, ptr align 4 %33, i64 12, i1 false), !dbg !2600
  %34 = load ptr, ptr %4, align 8, !dbg !2601
  %35 = load ptr, ptr %5, align 8, !dbg !2601
  %36 = getelementptr inbounds nuw %struct.object, ptr %35, i32 0, i32 12, !dbg !2601
  %37 = getelementptr inbounds nuw %struct.vms_matrix, ptr %36, i32 0, i32 2, !dbg !2601
  %38 = call noundef i32 @_Z14vm_vec_dotprodP10vms_vectorS0_(ptr noundef %34, ptr noundef %37), !dbg !2601
  store i32 %38, ptr %8, align 4, !dbg !2602
  %39 = load i32, ptr %8, align 4, !dbg !2603
  %40 = load i32, ptr @FrameTime, align 4, !dbg !2605
  %41 = sdiv i32 %40, 2, !dbg !2606
  %42 = sub nsw i32 65536, %41, !dbg !2607
  %43 = icmp slt i32 %39, %42, !dbg !2608
  br i1 %43, label %44, label %64, !dbg !2608

44:                                               ; preds = %32
    #dbg_declare(ptr %9, !2609, !DIExpression(), !2611)
    #dbg_declare(ptr %10, !2612, !DIExpression(), !2613)
  %45 = load i32, ptr @FrameTime, align 4, !dbg !2614
  %46 = mul nsw i32 %45, 1, !dbg !2615
  %47 = load i32, ptr %6, align 4, !dbg !2616
  %48 = call noundef i32 @_Z6fixdivii(i32 noundef %46, i32 noundef %47), !dbg !2617
  store i32 %48, ptr %10, align 4, !dbg !2613
  %49 = load i32, ptr %10, align 4, !dbg !2618
  %50 = call noundef ptr @_Z12vm_vec_scaleP10vms_vectori(ptr noundef %7, i32 noundef %49), !dbg !2619
  %51 = load ptr, ptr %5, align 8, !dbg !2620
  %52 = getelementptr inbounds nuw %struct.object, ptr %51, i32 0, i32 12, !dbg !2621
  %53 = getelementptr inbounds nuw %struct.vms_matrix, ptr %52, i32 0, i32 2, !dbg !2622
  %54 = call noundef ptr @_Z11vm_vec_add2P10vms_vectorS0_(ptr noundef %7, ptr noundef %53), !dbg !2623
  %55 = call noundef i32 @_Z22vm_vec_normalize_quickP10vms_vector(ptr noundef %7), !dbg !2624
  store i32 %55, ptr %9, align 4, !dbg !2625
  %56 = load i32, ptr %9, align 4, !dbg !2626
  %57 = icmp slt i32 %56, 256, !dbg !2628
  br i1 %57, label %58, label %63, !dbg !2628

58:                                               ; preds = %44
  %59 = load i32, ptr %9, align 4, !dbg !2629
  %60 = call noundef float @_Z4f2fli(i32 noundef %59), !dbg !2629
  %61 = fpext float %60 to double, !dbg !2629
  call void (i32, ptr, ...) @_Z8_mprintfiPKcz(i32 noundef 1, ptr noundef @.str.5, double noundef %61), !dbg !2629
  %62 = load ptr, ptr %4, align 8, !dbg !2631
  call void @llvm.memcpy.p0.p0.i64(ptr align 4 %7, ptr align 4 %62, i64 12, i1 false), !dbg !2632
  br label %63, !dbg !2633

63:                                               ; preds = %58, %44
  br label %64, !dbg !2634

64:                                               ; preds = %63, %32
  %65 = load i32, ptr @Seismic_tremor_magnitude, align 4, !dbg !2635
  %66 = icmp ne i32 %65, 0, !dbg !2635
  br i1 %66, label %67, label %80, !dbg !2635

67:                                               ; preds = %64
    #dbg_declare(ptr %11, !2637, !DIExpression(), !2639)
    #dbg_declare(ptr %12, !2640, !DIExpression(), !2641)
  call void @_Z18make_random_vectorP10vms_vector(ptr noundef %11), !dbg !2642
  %68 = load i32, ptr @Seismic_tremor_magnitude, align 4, !dbg !2643
  %69 = mul nsw i32 2, %68, !dbg !2644
  %70 = load ptr, ptr %5, align 8, !dbg !2645
  %71 = getelementptr inbounds nuw %struct.object, ptr %70, i32 0, i32 2, !dbg !2646
  %72 = load i8, ptr %71, align 1, !dbg !2646
  %73 = zext i8 %72 to i64, !dbg !2647
  %74 = getelementptr inbounds nuw [0 x %struct.robot_info], ptr @Robot_info, i64 0, i64 %73, !dbg !2647
  %75 = getelementptr inbounds nuw %struct.robot_info, ptr %74, i32 0, i32 20, !dbg !2648
  %76 = load i32, ptr %75, align 4, !dbg !2648
  %77 = call noundef i32 @_Z6fixdivii(i32 noundef %69, i32 noundef %76), !dbg !2649
  store i32 %77, ptr %12, align 4, !dbg !2650
  %78 = load i32, ptr %12, align 4, !dbg !2651
  %79 = call noundef ptr @_Z17vm_vec_scale_add2P10vms_vectorS0_i(ptr noundef %7, ptr noundef %11, i32 noundef %78), !dbg !2652
  br label %80, !dbg !2653

80:                                               ; preds = %67, %64
  %81 = load ptr, ptr %5, align 8, !dbg !2654
  %82 = getelementptr inbounds nuw %struct.object, ptr %81, i32 0, i32 12, !dbg !2655
  %83 = load ptr, ptr %5, align 8, !dbg !2656
  %84 = getelementptr inbounds nuw %struct.object, ptr %83, i32 0, i32 12, !dbg !2657
  %85 = getelementptr inbounds nuw %struct.vms_matrix, ptr %84, i32 0, i32 0, !dbg !2658
  %86 = call noundef ptr @_Z18vm_vector_2_matrixP10vms_matrixP10vms_vectorS2_S2_(ptr noundef %82, ptr noundef %7, ptr noundef null, ptr noundef %85), !dbg !2659
  br label %87, !dbg !2660

87:                                               ; preds = %80, %28, %15
  ret void, !dbg !2660
}

declare void @_Z27physics_turn_towards_vectorP10vms_vectorP6objecti(ptr noundef, ptr noundef, i32 noundef) #2

declare noundef i32 @_Z14vm_vec_dotprodP10vms_vectorS0_(ptr noundef, ptr noundef) #2

; Function Attrs: mustprogress noinline nounwind ssp uwtable(sync)
define linkonce_odr noundef i32 @_Z6fixdivii(i32 noundef %0, i32 noundef %1) #0 !dbg !2661 {
  %3 = alloca i32, align 4
  %4 = alloca i32, align 4
  %5 = alloca i32, align 4
  store i32 %0, ptr %4, align 4
    #dbg_declare(ptr %4, !2664, !DIExpression(), !2665)
  store i32 %1, ptr %5, align 4
    #dbg_declare(ptr %5, !2666, !DIExpression(), !2667)
  %6 = load i32, ptr %5, align 4, !dbg !2668
  %7 = icmp eq i32 %6, 0, !dbg !2670
  br i1 %7, label %8, label %9, !dbg !2670

8:                                                ; preds = %2
  store i32 1, ptr %3, align 4, !dbg !2671
  br label %17, !dbg !2671

9:                                                ; preds = %2
  %10 = load i32, ptr %4, align 4, !dbg !2672
  %11 = sext i32 %10 to i64, !dbg !2672
  %12 = shl i64 %11, 16, !dbg !2673
  %13 = load i32, ptr %5, align 4, !dbg !2674
  %14 = sext i32 %13 to i64, !dbg !2674
  %15 = sdiv i64 %12, %14, !dbg !2675
  %16 = trunc i64 %15 to i32, !dbg !2676
  store i32 %16, ptr %3, align 4, !dbg !2677
  br label %17, !dbg !2677

17:                                               ; preds = %9, %8
  %18 = load i32, ptr %3, align 4, !dbg !2678
  ret i32 %18, !dbg !2678
}

declare noundef ptr @_Z12vm_vec_scaleP10vms_vectori(ptr noundef, i32 noundef) #2

declare noundef ptr @_Z11vm_vec_add2P10vms_vectorS0_(ptr noundef, ptr noundef) #2

declare noundef i32 @_Z22vm_vec_normalize_quickP10vms_vector(ptr noundef) #2

; Function Attrs: mustprogress noinline nounwind ssp uwtable(sync)
define linkonce_odr noundef float @_Z4f2fli(i32 noundef %0) #0 !dbg !2679 {
  %2 = alloca i32, align 4
  store i32 %0, ptr %2, align 4
    #dbg_declare(ptr %2, !2682, !DIExpression(), !2683)
  %3 = load i32, ptr %2, align 4, !dbg !2684
  %4 = sitofp i32 %3 to float, !dbg !2684
  %5 = fdiv float %4, 6.553600e+04, !dbg !2685
  ret float %5, !dbg !2686
}

; Function Attrs: mustprogress noinline ssp uwtable(sync)
define void @_Z18make_random_vectorP10vms_vector(ptr noundef %0) #1 !dbg !2687 {
  %2 = alloca ptr, align 8
  store ptr %0, ptr %2, align 8
    #dbg_declare(ptr %2, !2690, !DIExpression(), !2691)
  %3 = call noundef i32 @_Z6P_Randv(), !dbg !2692
  %4 = sub nsw i32 %3, 16384, !dbg !2693
  %5 = or i32 %4, 1, !dbg !2694
  %6 = load ptr, ptr %2, align 8, !dbg !2695
  %7 = getelementptr inbounds nuw %struct.vms_vector, ptr %6, i32 0, i32 0, !dbg !2696
  store i32 %5, ptr %7, align 4, !dbg !2697
  %8 = call noundef i32 @_Z6P_Randv(), !dbg !2698
  %9 = sub nsw i32 %8, 16384, !dbg !2699
  %10 = load ptr, ptr %2, align 8, !dbg !2700
  %11 = getelementptr inbounds nuw %struct.vms_vector, ptr %10, i32 0, i32 1, !dbg !2701
  store i32 %9, ptr %11, align 4, !dbg !2702
  %12 = call noundef i32 @_Z6P_Randv(), !dbg !2703
  %13 = sub nsw i32 %12, 16384, !dbg !2704
  %14 = load ptr, ptr %2, align 8, !dbg !2705
  %15 = getelementptr inbounds nuw %struct.vms_vector, ptr %14, i32 0, i32 2, !dbg !2706
  store i32 %13, ptr %15, align 4, !dbg !2707
  %16 = load ptr, ptr %2, align 8, !dbg !2708
  %17 = call noundef i32 @_Z22vm_vec_normalize_quickP10vms_vector(ptr noundef %16), !dbg !2709
  ret void, !dbg !2710
}

declare noundef ptr @_Z17vm_vec_scale_add2P10vms_vectorS0_i(ptr noundef, ptr noundef, i32 noundef) #2

declare noundef ptr @_Z18vm_vector_2_matrixP10vms_matrixP10vms_vectorS2_S2_(ptr noundef, ptr noundef, ptr noundef, ptr noundef) #2

; Function Attrs: mustprogress noinline ssp uwtable(sync)
define noundef i32 @_Z29player_is_visible_from_objectP6objectP10vms_vectoriS2_(ptr noundef %0, ptr noundef %1, i32 noundef %2, ptr noundef %3) #1 !dbg !2711 {
  %5 = alloca i32, align 4
  %6 = alloca ptr, align 8
  %7 = alloca ptr, align 8
  %8 = alloca i32, align 4
  %9 = alloca ptr, align 8
  %10 = alloca i32, align 4
  %11 = alloca %struct.fvi_query, align 8
  %12 = alloca i32, align 4
  store ptr %0, ptr %6, align 8
    #dbg_declare(ptr %6, !2714, !DIExpression(), !2715)
  store ptr %1, ptr %7, align 8
    #dbg_declare(ptr %7, !2716, !DIExpression(), !2717)
  store i32 %2, ptr %8, align 4
    #dbg_declare(ptr %8, !2718, !DIExpression(), !2719)
  store ptr %3, ptr %9, align 8
    #dbg_declare(ptr %9, !2720, !DIExpression(), !2721)
    #dbg_declare(ptr %10, !2722, !DIExpression(), !2723)
    #dbg_declare(ptr %11, !2724, !DIExpression(), !2736)
  %13 = load ptr, ptr %6, align 8, !dbg !2737
  %14 = getelementptr inbounds nuw %struct.object, ptr %13, i32 0, i32 22, !dbg !2738
  %15 = getelementptr inbounds nuw %struct.ai_static, ptr %14, i32 0, i32 1, !dbg !2739
  %16 = getelementptr inbounds [11 x i8], ptr %15, i64 0, i64 4, !dbg !2737
  %17 = load i8, ptr %16, align 1, !dbg !2740
  %18 = sext i8 %17 to i32, !dbg !2740
  %19 = and i32 %18, -2, !dbg !2740
  %20 = trunc i32 %19 to i8, !dbg !2740
  store i8 %20, ptr %16, align 1, !dbg !2740
  %21 = load ptr, ptr %7, align 8, !dbg !2741
  %22 = getelementptr inbounds nuw %struct.fvi_query, ptr %11, i32 0, i32 0, !dbg !2742
  store ptr %21, ptr %22, align 8, !dbg !2743
  %23 = load ptr, ptr %7, align 8, !dbg !2744
  %24 = getelementptr inbounds nuw %struct.vms_vector, ptr %23, i32 0, i32 0, !dbg !2746
  %25 = load i32, ptr %24, align 4, !dbg !2746
  %26 = load ptr, ptr %6, align 8, !dbg !2747
  %27 = getelementptr inbounds nuw %struct.object, ptr %26, i32 0, i32 11, !dbg !2748
  %28 = getelementptr inbounds nuw %struct.vms_vector, ptr %27, i32 0, i32 0, !dbg !2749
  %29 = load i32, ptr %28, align 4, !dbg !2749
  %30 = icmp ne i32 %25, %29, !dbg !2750
  br i1 %30, label %49, label %31, !dbg !2751

31:                                               ; preds = %4
  %32 = load ptr, ptr %7, align 8, !dbg !2752
  %33 = getelementptr inbounds nuw %struct.vms_vector, ptr %32, i32 0, i32 1, !dbg !2753
  %34 = load i32, ptr %33, align 4, !dbg !2753
  %35 = load ptr, ptr %6, align 8, !dbg !2754
  %36 = getelementptr inbounds nuw %struct.object, ptr %35, i32 0, i32 11, !dbg !2755
  %37 = getelementptr inbounds nuw %struct.vms_vector, ptr %36, i32 0, i32 1, !dbg !2756
  %38 = load i32, ptr %37, align 4, !dbg !2756
  %39 = icmp ne i32 %34, %38, !dbg !2757
  br i1 %39, label %49, label %40, !dbg !2758

40:                                               ; preds = %31
  %41 = load ptr, ptr %7, align 8, !dbg !2759
  %42 = getelementptr inbounds nuw %struct.vms_vector, ptr %41, i32 0, i32 2, !dbg !2760
  %43 = load i32, ptr %42, align 4, !dbg !2760
  %44 = load ptr, ptr %6, align 8, !dbg !2761
  %45 = getelementptr inbounds nuw %struct.object, ptr %44, i32 0, i32 11, !dbg !2762
  %46 = getelementptr inbounds nuw %struct.vms_vector, ptr %45, i32 0, i32 2, !dbg !2763
  %47 = load i32, ptr %46, align 4, !dbg !2763
  %48 = icmp ne i32 %43, %47, !dbg !2764
  br i1 %48, label %49, label %92, !dbg !2758

49:                                               ; preds = %40, %31, %4
    #dbg_declare(ptr %12, !2765, !DIExpression(), !2767)
  %50 = load ptr, ptr %7, align 8, !dbg !2768
  %51 = load ptr, ptr %6, align 8, !dbg !2769
  %52 = getelementptr inbounds nuw %struct.object, ptr %51, i32 0, i32 9, !dbg !2770
  %53 = load i16, ptr %52, align 2, !dbg !2770
  %54 = sext i16 %53 to i32, !dbg !2769
  %55 = call noundef i32 @_Z14find_point_segP10vms_vectori(ptr noundef %50, i32 noundef %54), !dbg !2771
  store i32 %55, ptr %12, align 4, !dbg !2767
  %56 = load i32, ptr %12, align 4, !dbg !2772
  %57 = icmp eq i32 %56, -1, !dbg !2774
  br i1 %57, label %58, label %72, !dbg !2774

58:                                               ; preds = %49
  %59 = load ptr, ptr %6, align 8, !dbg !2775
  %60 = getelementptr inbounds nuw %struct.object, ptr %59, i32 0, i32 9, !dbg !2777
  %61 = load i16, ptr %60, align 2, !dbg !2777
  %62 = sext i16 %61 to i32, !dbg !2775
  %63 = getelementptr inbounds nuw %struct.fvi_query, ptr %11, i32 0, i32 2, !dbg !2778
  store i32 %62, ptr %63, align 8, !dbg !2779
  %64 = load ptr, ptr %6, align 8, !dbg !2780
  %65 = getelementptr inbounds nuw %struct.object, ptr %64, i32 0, i32 11, !dbg !2781
  %66 = load ptr, ptr %7, align 8, !dbg !2782
  call void @llvm.memcpy.p0.p0.i64(ptr align 4 %66, ptr align 4 %65, i64 12, i1 false), !dbg !2783
  %67 = load ptr, ptr %6, align 8, !dbg !2784
  %68 = ptrtoint ptr %67 to i64, !dbg !2784
  %69 = sub i64 %68, ptrtoint (ptr @Objects to i64), !dbg !2784
  %70 = sdiv exact i64 %69, 268, !dbg !2784
  call void (i32, ptr, ...) @_Z8_mprintfiPKcz(i32 noundef 1, ptr noundef @.str.6, i64 noundef %70), !dbg !2784
  %71 = load ptr, ptr %6, align 8, !dbg !2785
  call void @_Z27move_towards_segment_centerP6object(ptr noundef %71), !dbg !2786
  br label %91, !dbg !2787

72:                                               ; preds = %49
  %73 = load i32, ptr %12, align 4, !dbg !2788
  %74 = load ptr, ptr %6, align 8, !dbg !2791
  %75 = getelementptr inbounds nuw %struct.object, ptr %74, i32 0, i32 9, !dbg !2792
  %76 = load i16, ptr %75, align 2, !dbg !2792
  %77 = sext i16 %76 to i32, !dbg !2791
  %78 = icmp ne i32 %73, %77, !dbg !2793
  br i1 %78, label %79, label %88, !dbg !2793

79:                                               ; preds = %72
  %80 = load ptr, ptr %6, align 8, !dbg !2794
  %81 = getelementptr inbounds nuw %struct.object, ptr %80, i32 0, i32 22, !dbg !2796
  %82 = getelementptr inbounds nuw %struct.ai_static, ptr %81, i32 0, i32 1, !dbg !2797
  %83 = getelementptr inbounds [11 x i8], ptr %82, i64 0, i64 4, !dbg !2794
  %84 = load i8, ptr %83, align 1, !dbg !2798
  %85 = sext i8 %84 to i32, !dbg !2798
  %86 = or i32 %85, 1, !dbg !2798
  %87 = trunc i32 %86 to i8, !dbg !2798
  store i8 %87, ptr %83, align 1, !dbg !2798
  br label %88, !dbg !2799

88:                                               ; preds = %79, %72
  %89 = load i32, ptr %12, align 4, !dbg !2800
  %90 = getelementptr inbounds nuw %struct.fvi_query, ptr %11, i32 0, i32 2, !dbg !2801
  store i32 %89, ptr %90, align 8, !dbg !2802
  br label %91

91:                                               ; preds = %88, %58
  br label %98, !dbg !2803

92:                                               ; preds = %40
  %93 = load ptr, ptr %6, align 8, !dbg !2804
  %94 = getelementptr inbounds nuw %struct.object, ptr %93, i32 0, i32 9, !dbg !2805
  %95 = load i16, ptr %94, align 2, !dbg !2805
  %96 = sext i16 %95 to i32, !dbg !2804
  %97 = getelementptr inbounds nuw %struct.fvi_query, ptr %11, i32 0, i32 2, !dbg !2806
  store i32 %96, ptr %97, align 8, !dbg !2807
  br label %98

98:                                               ; preds = %92, %91
  %99 = getelementptr inbounds nuw %struct.fvi_query, ptr %11, i32 0, i32 1, !dbg !2808
  store ptr @Believed_player_pos, ptr %99, align 8, !dbg !2809
  %100 = getelementptr inbounds nuw %struct.fvi_query, ptr %11, i32 0, i32 3, !dbg !2810
  store i32 16384, ptr %100, align 4, !dbg !2811
  %101 = load ptr, ptr %6, align 8, !dbg !2812
  %102 = ptrtoint ptr %101 to i64, !dbg !2813
  %103 = sub i64 %102, ptrtoint (ptr @Objects to i64), !dbg !2813
  %104 = sdiv exact i64 %103, 268, !dbg !2813
  %105 = trunc i64 %104 to i16, !dbg !2812
  %106 = getelementptr inbounds nuw %struct.fvi_query, ptr %11, i32 0, i32 4, !dbg !2814
  store i16 %105, ptr %106, align 8, !dbg !2815
  %107 = getelementptr inbounds nuw %struct.fvi_query, ptr %11, i32 0, i32 5, !dbg !2816
  store ptr null, ptr %107, align 8, !dbg !2817
  %108 = getelementptr inbounds nuw %struct.fvi_query, ptr %11, i32 0, i32 6, !dbg !2818
  store i32 2, ptr %108, align 8, !dbg !2819
  %109 = call noundef i32 @_Z24find_vector_intersectionP9fvi_queryP8fvi_info(ptr noundef %11, ptr noundef @Hit_data), !dbg !2820
  store i32 %109, ptr @Hit_type, align 4, !dbg !2821
  call void @llvm.memcpy.p0.p0.i64(ptr align 4 @Hit_pos, ptr align 4 getelementptr inbounds nuw (%struct.fvi_info, ptr @Hit_data, i32 0, i32 1), i64 12, i1 false), !dbg !2822
  %110 = load i32, ptr getelementptr inbounds nuw (%struct.fvi_info, ptr @Hit_data, i32 0, i32 2), align 4, !dbg !2823
  store i32 %110, ptr @Hit_seg, align 4, !dbg !2824
  %111 = load i32, ptr @Hit_type, align 4, !dbg !2825
  %112 = icmp eq i32 %111, 0, !dbg !2827
  br i1 %112, label %113, label %127, !dbg !2827

113:                                              ; preds = %98
  %114 = load ptr, ptr %9, align 8, !dbg !2828
  %115 = load ptr, ptr %6, align 8, !dbg !2828
  %116 = getelementptr inbounds nuw %struct.object, ptr %115, i32 0, i32 12, !dbg !2828
  %117 = getelementptr inbounds nuw %struct.vms_matrix, ptr %116, i32 0, i32 2, !dbg !2828
  %118 = call noundef i32 @_Z14vm_vec_dotprodP10vms_vectorS0_(ptr noundef %114, ptr noundef %117), !dbg !2828
  store i32 %118, ptr %10, align 4, !dbg !2830
  %119 = load i32, ptr %10, align 4, !dbg !2831
  %120 = load i32, ptr %8, align 4, !dbg !2833
  %121 = load i32, ptr @Overall_agitation, align 4, !dbg !2834
  %122 = shl i32 %121, 9, !dbg !2835
  %123 = sub nsw i32 %120, %122, !dbg !2836
  %124 = icmp sgt i32 %119, %123, !dbg !2837
  br i1 %124, label %125, label %126, !dbg !2837

125:                                              ; preds = %113
  store i32 2, ptr %5, align 4, !dbg !2838
  br label %128, !dbg !2838

126:                                              ; preds = %113
  store i32 1, ptr %5, align 4, !dbg !2840
  br label %128, !dbg !2840

127:                                              ; preds = %98
  store i32 0, ptr %5, align 4, !dbg !2842
  br label %128, !dbg !2842

128:                                              ; preds = %127, %126, %125
  %129 = load i32, ptr %5, align 4, !dbg !2844
  ret i32 %129, !dbg !2844
}

declare noundef i32 @_Z14find_point_segP10vms_vectori(ptr noundef, i32 noundef) #2

; Function Attrs: mustprogress noinline ssp uwtable(sync)
define void @_Z27move_towards_segment_centerP6object(ptr noundef %0) #1 !dbg !2845 {
  %2 = alloca ptr, align 8
  %3 = alloca i32, align 4
  %4 = alloca i32, align 4
  %5 = alloca %struct.vms_vector, align 4
  %6 = alloca %struct.vms_vector, align 4
  %7 = alloca i32, align 4
  store ptr %0, ptr %2, align 8
    #dbg_declare(ptr %2, !2848, !DIExpression(), !2849)
    #dbg_declare(ptr %3, !2850, !DIExpression(), !2851)
  %8 = load ptr, ptr %2, align 8, !dbg !2852
  %9 = getelementptr inbounds nuw %struct.object, ptr %8, i32 0, i32 9, !dbg !2853
  %10 = load i16, ptr %9, align 2, !dbg !2853
  %11 = sext i16 %10 to i32, !dbg !2852
  store i32 %11, ptr %3, align 4, !dbg !2851
    #dbg_declare(ptr %4, !2854, !DIExpression(), !2855)
    #dbg_declare(ptr %5, !2856, !DIExpression(), !2857)
    #dbg_declare(ptr %6, !2858, !DIExpression(), !2859)
  %12 = load i32, ptr %3, align 4, !dbg !2860
  %13 = sext i32 %12 to i64, !dbg !2861
  %14 = getelementptr inbounds [0 x %struct.segment], ptr @Segments, i64 0, i64 %13, !dbg !2861
  call void @_Z22compute_segment_centerP10vms_vectorP7segment(ptr noundef %5, ptr noundef %14), !dbg !2862
  %15 = load ptr, ptr %2, align 8, !dbg !2863
  %16 = getelementptr inbounds nuw %struct.object, ptr %15, i32 0, i32 11, !dbg !2864
  %17 = call noundef ptr @_Z10vm_vec_subP10vms_vectorS0_S0_(ptr noundef %6, ptr noundef %5, ptr noundef %16), !dbg !2865
  %18 = call noundef i32 @_Z22vm_vec_normalize_quickP10vms_vector(ptr noundef %6), !dbg !2866
  store i32 %18, ptr %4, align 4, !dbg !2867
  %19 = load i32, ptr %4, align 4, !dbg !2868
  %20 = load ptr, ptr %2, align 8, !dbg !2870
  %21 = getelementptr inbounds nuw %struct.object, ptr %20, i32 0, i32 13, !dbg !2871
  %22 = load i32, ptr %21, align 4, !dbg !2871
  %23 = icmp slt i32 %19, %22, !dbg !2872
  br i1 %23, label %24, label %59, !dbg !2872

24:                                               ; preds = %1
  %25 = load ptr, ptr %2, align 8, !dbg !2873
  %26 = getelementptr inbounds nuw %struct.object, ptr %25, i32 0, i32 11, !dbg !2875
  call void @llvm.memcpy.p0.p0.i64(ptr align 4 %26, ptr align 4 %5, i64 12, i1 false), !dbg !2876
  %27 = load ptr, ptr %2, align 8, !dbg !2877
  %28 = ptrtoint ptr %27 to i64, !dbg !2877
  %29 = sub i64 %28, ptrtoint (ptr @Objects to i64), !dbg !2877
  %30 = sdiv exact i64 %29, 268, !dbg !2877
  %31 = load ptr, ptr %2, align 8, !dbg !2877
  %32 = getelementptr inbounds nuw %struct.object, ptr %31, i32 0, i32 9, !dbg !2877
  %33 = load i16, ptr %32, align 2, !dbg !2877
  %34 = sext i16 %33 to i32, !dbg !2877
  %35 = load ptr, ptr %2, align 8, !dbg !2877
  %36 = getelementptr inbounds nuw %struct.object, ptr %35, i32 0, i32 11, !dbg !2877
  %37 = getelementptr inbounds nuw %struct.vms_vector, ptr %36, i32 0, i32 0, !dbg !2877
  %38 = load i32, ptr %37, align 4, !dbg !2877
  %39 = call noundef float @_Z4f2fli(i32 noundef %38), !dbg !2877
  %40 = fpext float %39 to double, !dbg !2877
  %41 = load ptr, ptr %2, align 8, !dbg !2877
  %42 = getelementptr inbounds nuw %struct.object, ptr %41, i32 0, i32 11, !dbg !2877
  %43 = getelementptr inbounds nuw %struct.vms_vector, ptr %42, i32 0, i32 1, !dbg !2877
  %44 = load i32, ptr %43, align 4, !dbg !2877
  %45 = call noundef float @_Z4f2fli(i32 noundef %44), !dbg !2877
  %46 = fpext float %45 to double, !dbg !2877
  %47 = load ptr, ptr %2, align 8, !dbg !2877
  %48 = getelementptr inbounds nuw %struct.object, ptr %47, i32 0, i32 11, !dbg !2877
  %49 = getelementptr inbounds nuw %struct.vms_vector, ptr %48, i32 0, i32 2, !dbg !2877
  %50 = load i32, ptr %49, align 4, !dbg !2877
  %51 = call noundef float @_Z4f2fli(i32 noundef %50), !dbg !2877
  %52 = fpext float %51 to double, !dbg !2877
  call void (i32, ptr, ...) @_Z8_mprintfiPKcz(i32 noundef 0, ptr noundef @.str.30, i64 noundef %30, i32 noundef %34, double noundef %40, double noundef %46, double noundef %52), !dbg !2877
  %53 = load ptr, ptr %2, align 8, !dbg !2878
  %54 = call noundef i32 @_Z22object_intersects_wallP6object(ptr noundef %53), !dbg !2880
  %55 = icmp ne i32 %54, 0, !dbg !2880
  br i1 %55, label %56, label %58, !dbg !2880

56:                                               ; preds = %24
  call void (i32, ptr, ...) @_Z8_mprintfiPKcz(i32 noundef 0, ptr noundef @.str.31), !dbg !2881
  %57 = load ptr, ptr %2, align 8, !dbg !2883
  call void @_Z25move_object_to_legal_spotP6object(ptr noundef %57), !dbg !2884
  br label %58, !dbg !2885

58:                                               ; preds = %56, %24
  br label %81, !dbg !2886

59:                                               ; preds = %1
    #dbg_declare(ptr %7, !2887, !DIExpression(), !2889)
  %60 = load ptr, ptr %2, align 8, !dbg !2890
  %61 = getelementptr inbounds nuw %struct.object, ptr %60, i32 0, i32 13, !dbg !2891
  %62 = load i32, ptr %61, align 4, !dbg !2891
  %63 = call noundef ptr @_Z12vm_vec_scaleP10vms_vectori(ptr noundef %6, i32 noundef %62), !dbg !2892
  %64 = load ptr, ptr %2, align 8, !dbg !2893
  %65 = getelementptr inbounds nuw %struct.object, ptr %64, i32 0, i32 11, !dbg !2894
  %66 = call noundef ptr @_Z11vm_vec_add2P10vms_vectorS0_(ptr noundef %65, ptr noundef %6), !dbg !2895
  %67 = load ptr, ptr %2, align 8, !dbg !2896
  %68 = getelementptr inbounds nuw %struct.object, ptr %67, i32 0, i32 11, !dbg !2897
  %69 = load ptr, ptr %2, align 8, !dbg !2898
  %70 = getelementptr inbounds nuw %struct.object, ptr %69, i32 0, i32 9, !dbg !2899
  %71 = load i16, ptr %70, align 2, !dbg !2899
  %72 = sext i16 %71 to i32, !dbg !2898
  %73 = call noundef i32 @_Z14find_point_segP10vms_vectori(ptr noundef %68, i32 noundef %72), !dbg !2900
  store i32 %73, ptr %7, align 4, !dbg !2901
  %74 = load i32, ptr %7, align 4, !dbg !2902
  %75 = icmp eq i32 %74, -1, !dbg !2904
  br i1 %75, label %76, label %80, !dbg !2904

76:                                               ; preds = %59
  %77 = load ptr, ptr %2, align 8, !dbg !2905
  %78 = getelementptr inbounds nuw %struct.object, ptr %77, i32 0, i32 11, !dbg !2907
  call void @llvm.memcpy.p0.p0.i64(ptr align 4 %78, ptr align 4 %5, i64 12, i1 false), !dbg !2908
  %79 = load ptr, ptr %2, align 8, !dbg !2909
  call void @_Z25move_object_to_legal_spotP6object(ptr noundef %79), !dbg !2910
  br label %80, !dbg !2911

80:                                               ; preds = %76, %59
  br label %81

81:                                               ; preds = %80, %58
  ret void, !dbg !2912
}

declare noundef i32 @_Z24find_vector_intersectionP9fvi_queryP8fvi_info(ptr noundef, ptr noundef) #2

; Function Attrs: mustprogress noinline ssp uwtable(sync)
define noundef i32 @_Z18do_silly_animationP6object(ptr noundef %0) #1 !dbg !2913 {
  %2 = alloca i32, align 4
  %3 = alloca ptr, align 8
  %4 = alloca i32, align 4
  %5 = alloca ptr, align 8
  %6 = alloca i32, align 4
  %7 = alloca i32, align 4
  %8 = alloca i32, align 4
  %9 = alloca i32, align 4
  %10 = alloca ptr, align 8
  %11 = alloca ptr, align 8
  %12 = alloca i32, align 4
  %13 = alloca i32, align 4
  %14 = alloca i32, align 4
  %15 = alloca i32, align 4
  %16 = alloca i32, align 4
  %17 = alloca i32, align 4
  %18 = alloca i32, align 4
  %19 = alloca i32, align 4
  %20 = alloca ptr, align 8
  %21 = alloca ptr, align 8
  %22 = alloca ptr, align 8
  store ptr %0, ptr %3, align 8
    #dbg_declare(ptr %3, !2916, !DIExpression(), !2917)
    #dbg_declare(ptr %4, !2918, !DIExpression(), !2919)
  %23 = load ptr, ptr %3, align 8, !dbg !2920
  %24 = ptrtoint ptr %23 to i64, !dbg !2921
  %25 = sub i64 %24, ptrtoint (ptr @Objects to i64), !dbg !2921
  %26 = sdiv exact i64 %25, 268, !dbg !2921
  %27 = trunc i64 %26 to i32, !dbg !2920
  store i32 %27, ptr %4, align 4, !dbg !2919
    #dbg_declare(ptr %5, !2922, !DIExpression(), !2929)
    #dbg_declare(ptr %6, !2930, !DIExpression(), !2931)
    #dbg_declare(ptr %7, !2932, !DIExpression(), !2933)
    #dbg_declare(ptr %8, !2934, !DIExpression(), !2935)
    #dbg_declare(ptr %9, !2936, !DIExpression(), !2937)
    #dbg_declare(ptr %10, !2938, !DIExpression(), !2940)
  %28 = load ptr, ptr %3, align 8, !dbg !2941
  %29 = getelementptr inbounds nuw %struct.object, ptr %28, i32 0, i32 23, !dbg !2942
  store ptr %29, ptr %10, align 8, !dbg !2940
    #dbg_declare(ptr %11, !2943, !DIExpression(), !2944)
  %30 = load ptr, ptr %3, align 8, !dbg !2945
  %31 = getelementptr inbounds nuw %struct.object, ptr %30, i32 0, i32 22, !dbg !2946
  store ptr %31, ptr %11, align 8, !dbg !2944
    #dbg_declare(ptr %12, !2947, !DIExpression(), !2948)
    #dbg_declare(ptr %13, !2949, !DIExpression(), !2950)
    #dbg_declare(ptr %14, !2951, !DIExpression(), !2952)
    #dbg_declare(ptr %15, !2953, !DIExpression(), !2954)
  store i32 1, ptr %15, align 4, !dbg !2954
  %32 = load ptr, ptr %3, align 8, !dbg !2955
  %33 = getelementptr inbounds nuw %struct.object, ptr %32, i32 0, i32 2, !dbg !2956
  %34 = load i8, ptr %33, align 1, !dbg !2956
  %35 = zext i8 %34 to i32, !dbg !2955
  store i32 %35, ptr %6, align 4, !dbg !2957
  %36 = load i32, ptr %6, align 4, !dbg !2958
  %37 = sext i32 %36 to i64, !dbg !2959
  %38 = getelementptr inbounds [0 x %struct.robot_info], ptr @Robot_info, i64 0, i64 %37, !dbg !2959
  %39 = getelementptr inbounds nuw %struct.robot_info, ptr %38, i32 0, i32 9, !dbg !2960
  %40 = load i8, ptr %39, align 2, !dbg !2960
  %41 = sext i8 %40 to i32, !dbg !2959
  store i32 %41, ptr %12, align 4, !dbg !2961
  %42 = load i32, ptr %6, align 4, !dbg !2962
  %43 = sext i32 %42 to i64, !dbg !2963
  %44 = getelementptr inbounds [0 x %struct.robot_info], ptr @Robot_info, i64 0, i64 %43, !dbg !2963
  %45 = getelementptr inbounds nuw %struct.robot_info, ptr %44, i32 0, i32 31, !dbg !2964
  %46 = load i8, ptr %45, align 1, !dbg !2964
  %47 = sext i8 %46 to i32, !dbg !2963
  store i32 %47, ptr %14, align 4, !dbg !2965
  %48 = load i32, ptr %12, align 4, !dbg !2966
  %49 = icmp eq i32 %48, 0, !dbg !2968
  br i1 %49, label %50, label %51, !dbg !2968

50:                                               ; preds = %1
  store i32 0, ptr %2, align 4, !dbg !2969
  br label %390, !dbg !2969

51:                                               ; preds = %1
  %52 = load ptr, ptr %11, align 8, !dbg !2971
  %53 = getelementptr inbounds nuw %struct.ai_static, ptr %52, i32 0, i32 1, !dbg !2972
  %54 = getelementptr inbounds [11 x i8], ptr %53, i64 0, i64 2, !dbg !2971
  %55 = load i8, ptr %54, align 1, !dbg !2971
  %56 = sext i8 %55 to i64, !dbg !2973
  %57 = getelementptr inbounds [8 x i8], ptr @Mike_to_matt_xlate, i64 0, i64 %56, !dbg !2973
  %58 = load i8, ptr %57, align 1, !dbg !2973
  %59 = sext i8 %58 to i32, !dbg !2973
  store i32 %59, ptr %8, align 4, !dbg !2974
  %60 = load i32, ptr %14, align 4, !dbg !2975
  %61 = icmp ne i32 %60, 0, !dbg !2975
  br i1 %61, label %62, label %64, !dbg !2975

62:                                               ; preds = %51
  %63 = load i32, ptr @Attack_scale, align 4, !dbg !2977
  store i32 %63, ptr %15, align 4, !dbg !2978
  br label %73, !dbg !2979

64:                                               ; preds = %51
  %65 = load i32, ptr %8, align 4, !dbg !2980
  %66 = icmp eq i32 %65, 4, !dbg !2982
  br i1 %66, label %70, label %67, !dbg !2983

67:                                               ; preds = %64
  %68 = load i32, ptr %8, align 4, !dbg !2984
  %69 = icmp eq i32 %68, 3, !dbg !2985
  br i1 %69, label %70, label %72, !dbg !2983

70:                                               ; preds = %67, %64
  %71 = load i32, ptr @Flinch_scale, align 4, !dbg !2986
  store i32 %71, ptr %15, align 4, !dbg !2987
  br label %72, !dbg !2988

72:                                               ; preds = %70, %67
  br label %73

73:                                               ; preds = %72, %62
  store i32 1, ptr %13, align 4, !dbg !2989
  store i32 0, ptr %7, align 4, !dbg !2990
  br label %74, !dbg !2992

74:                                               ; preds = %375, %73
  %75 = load i32, ptr %7, align 4, !dbg !2993
  %76 = load i32, ptr %12, align 4, !dbg !2995
  %77 = icmp sle i32 %75, %76, !dbg !2996
  br i1 %77, label %78, label %378, !dbg !2997

78:                                               ; preds = %74
    #dbg_declare(ptr %16, !2998, !DIExpression(), !3000)
  %79 = load i32, ptr %6, align 4, !dbg !3001
  %80 = load i32, ptr %7, align 4, !dbg !3002
  %81 = load i32, ptr %8, align 4, !dbg !3003
  %82 = call noundef i32 @_Z20robot_get_anim_statePP8jointposiii(ptr noundef %5, i32 noundef %79, i32 noundef %80, i32 noundef %81), !dbg !3004
  store i32 %82, ptr %9, align 4, !dbg !3005
  store i32 0, ptr %16, align 4, !dbg !3006
  br label %83, !dbg !3008

83:                                               ; preds = %321, %78
  %84 = load i32, ptr %16, align 4, !dbg !3009
  %85 = load i32, ptr %9, align 4, !dbg !3011
  %86 = icmp slt i32 %84, %85, !dbg !3012
  br i1 %86, label %87, label %324, !dbg !3013

87:                                               ; preds = %83
    #dbg_declare(ptr %17, !3014, !DIExpression(), !3016)
    #dbg_declare(ptr %18, !3017, !DIExpression(), !3018)
    #dbg_declare(ptr %19, !3019, !DIExpression(), !3020)
  %88 = load ptr, ptr %5, align 8, !dbg !3021
  %89 = load i32, ptr %16, align 4, !dbg !3022
  %90 = sext i32 %89 to i64, !dbg !3021
  %91 = getelementptr inbounds %struct.jointpos, ptr %88, i64 %90, !dbg !3021
  %92 = getelementptr inbounds nuw %struct.jointpos, ptr %91, i32 0, i32 0, !dbg !3023
  %93 = load i16, ptr %92, align 2, !dbg !3023
  %94 = sext i16 %93 to i32, !dbg !3021
  store i32 %94, ptr %19, align 4, !dbg !3020
    #dbg_declare(ptr %20, !3024, !DIExpression(), !3026)
  %95 = load ptr, ptr %5, align 8, !dbg !3027
  %96 = load i32, ptr %16, align 4, !dbg !3028
  %97 = sext i32 %96 to i64, !dbg !3027
  %98 = getelementptr inbounds %struct.jointpos, ptr %95, i64 %97, !dbg !3027
  %99 = getelementptr inbounds nuw %struct.jointpos, ptr %98, i32 0, i32 1, !dbg !3029
  store ptr %99, ptr %20, align 8, !dbg !3026
    #dbg_declare(ptr %21, !3030, !DIExpression(), !3031)
  %100 = load ptr, ptr %10, align 8, !dbg !3032
  %101 = getelementptr inbounds nuw %struct.polyobj_info, ptr %100, i32 0, i32 1, !dbg !3033
  %102 = load i32, ptr %19, align 4, !dbg !3034
  %103 = sext i32 %102 to i64, !dbg !3032
  %104 = getelementptr inbounds [10 x %struct.vms_angvec], ptr %101, i64 0, i64 %103, !dbg !3032
  store ptr %104, ptr %21, align 8, !dbg !3031
  %105 = load i32, ptr %19, align 4, !dbg !3035
  %106 = load ptr, ptr %3, align 8, !dbg !3037
  %107 = getelementptr inbounds nuw %struct.object, ptr %106, i32 0, i32 23, !dbg !3038
  %108 = getelementptr inbounds nuw %struct.polyobj_info, ptr %107, i32 0, i32 0, !dbg !3039
  %109 = load i32, ptr %108, align 4, !dbg !3039
  %110 = sext i32 %109 to i64, !dbg !3040
  %111 = getelementptr inbounds [0 x %struct.polymodel], ptr @Polygon_models, i64 0, i64 %110, !dbg !3040
  %112 = getelementptr inbounds nuw %struct.polymodel, ptr %111, i32 0, i32 0, !dbg !3041
  %113 = load i32, ptr %112, align 8, !dbg !3041
  %114 = icmp sge i32 %105, %113, !dbg !3042
  br i1 %114, label %115, label %116, !dbg !3042

115:                                              ; preds = %87
  call void @_Z4Int3v(), !dbg !3043
  br label %321, !dbg !3045

116:                                              ; preds = %87
  %117 = load ptr, ptr %20, align 8, !dbg !3046
  %118 = getelementptr inbounds nuw %struct.vms_angvec, ptr %117, i32 0, i32 0, !dbg !3048
  %119 = load i16, ptr %118, align 2, !dbg !3048
  %120 = sext i16 %119 to i32, !dbg !3046
  %121 = load ptr, ptr %21, align 8, !dbg !3049
  %122 = getelementptr inbounds nuw %struct.vms_angvec, ptr %121, i32 0, i32 0, !dbg !3050
  %123 = load i16, ptr %122, align 2, !dbg !3050
  %124 = sext i16 %123 to i32, !dbg !3049
  %125 = icmp ne i32 %120, %124, !dbg !3051
  br i1 %125, label %126, label %184, !dbg !3051

126:                                              ; preds = %116
  %127 = load i32, ptr %7, align 4, !dbg !3052
  %128 = icmp eq i32 %127, 0, !dbg !3055
  br i1 %128, label %129, label %130, !dbg !3055

129:                                              ; preds = %126
  store i32 0, ptr %13, align 4, !dbg !3056
  br label %130, !dbg !3057

130:                                              ; preds = %129, %126
  %131 = load ptr, ptr %20, align 8, !dbg !3058
  %132 = getelementptr inbounds nuw %struct.vms_angvec, ptr %131, i32 0, i32 0, !dbg !3059
  %133 = load i16, ptr %132, align 2, !dbg !3059
  %134 = load i32, ptr %4, align 4, !dbg !3060
  %135 = sext i32 %134 to i64, !dbg !3061
  %136 = getelementptr inbounds [350 x %struct.ai_local], ptr @Ai_local_info, i64 0, i64 %135, !dbg !3061
  %137 = getelementptr inbounds nuw %struct.ai_local, ptr %136, i32 0, i32 15, !dbg !3062
  %138 = load i32, ptr %19, align 4, !dbg !3063
  %139 = sext i32 %138 to i64, !dbg !3061
  %140 = getelementptr inbounds [10 x %struct.vms_angvec], ptr %137, i64 0, i64 %139, !dbg !3061
  %141 = getelementptr inbounds nuw %struct.vms_angvec, ptr %140, i32 0, i32 0, !dbg !3064
  store i16 %133, ptr %141, align 2, !dbg !3065
  %142 = load ptr, ptr %20, align 8, !dbg !3066
  %143 = getelementptr inbounds nuw %struct.vms_angvec, ptr %142, i32 0, i32 0, !dbg !3067
  %144 = load i16, ptr %143, align 2, !dbg !3067
  %145 = sext i16 %144 to i32, !dbg !3066
  %146 = load ptr, ptr %21, align 8, !dbg !3068
  %147 = getelementptr inbounds nuw %struct.vms_angvec, ptr %146, i32 0, i32 0, !dbg !3069
  %148 = load i16, ptr %147, align 2, !dbg !3069
  %149 = sext i16 %148 to i32, !dbg !3068
  %150 = sub nsw i32 %145, %149, !dbg !3070
  store i32 %150, ptr %17, align 4, !dbg !3071
  %151 = load i32, ptr %17, align 4, !dbg !3072
  %152 = icmp sge i32 %151, 32768, !dbg !3074
  br i1 %152, label %153, label %154, !dbg !3074

153:                                              ; preds = %130
  store i32 -4096, ptr %18, align 4, !dbg !3075
  br label %165, !dbg !3076

154:                                              ; preds = %130
  %155 = load i32, ptr %17, align 4, !dbg !3077
  %156 = icmp sge i32 %155, 0, !dbg !3079
  br i1 %156, label %157, label %158, !dbg !3079

157:                                              ; preds = %154
  store i32 4096, ptr %18, align 4, !dbg !3080
  br label %164, !dbg !3081

158:                                              ; preds = %154
  %159 = load i32, ptr %17, align 4, !dbg !3082
  %160 = icmp sge i32 %159, -32768, !dbg !3084
  br i1 %160, label %161, label %162, !dbg !3084

161:                                              ; preds = %158
  store i32 -4096, ptr %18, align 4, !dbg !3085
  br label %163, !dbg !3086

162:                                              ; preds = %158
  store i32 4096, ptr %18, align 4, !dbg !3087
  br label %163

163:                                              ; preds = %162, %161
  br label %164

164:                                              ; preds = %163, %157
  br label %165

165:                                              ; preds = %164, %153
  %166 = load i32, ptr %15, align 4, !dbg !3088
  %167 = icmp ne i32 %166, 1, !dbg !3090
  br i1 %167, label %168, label %172, !dbg !3090

168:                                              ; preds = %165
  %169 = load i32, ptr %15, align 4, !dbg !3091
  %170 = load i32, ptr %18, align 4, !dbg !3092
  %171 = mul nsw i32 %170, %169, !dbg !3092
  store i32 %171, ptr %18, align 4, !dbg !3092
  br label %172, !dbg !3093

172:                                              ; preds = %168, %165
  %173 = load i32, ptr %18, align 4, !dbg !3094
  %174 = sdiv i32 %173, 16, !dbg !3095
  %175 = trunc i32 %174 to i16, !dbg !3094
  %176 = load i32, ptr %4, align 4, !dbg !3096
  %177 = sext i32 %176 to i64, !dbg !3097
  %178 = getelementptr inbounds [350 x %struct.ai_local], ptr @Ai_local_info, i64 0, i64 %177, !dbg !3097
  %179 = getelementptr inbounds nuw %struct.ai_local, ptr %178, i32 0, i32 16, !dbg !3098
  %180 = load i32, ptr %19, align 4, !dbg !3099
  %181 = sext i32 %180 to i64, !dbg !3097
  %182 = getelementptr inbounds [10 x %struct.vms_angvec], ptr %179, i64 0, i64 %181, !dbg !3097
  %183 = getelementptr inbounds nuw %struct.vms_angvec, ptr %182, i32 0, i32 0, !dbg !3100
  store i16 %175, ptr %183, align 2, !dbg !3101
  br label %184, !dbg !3102

184:                                              ; preds = %172, %116
  %185 = load ptr, ptr %20, align 8, !dbg !3103
  %186 = getelementptr inbounds nuw %struct.vms_angvec, ptr %185, i32 0, i32 1, !dbg !3105
  %187 = load i16, ptr %186, align 2, !dbg !3105
  %188 = sext i16 %187 to i32, !dbg !3103
  %189 = load ptr, ptr %21, align 8, !dbg !3106
  %190 = getelementptr inbounds nuw %struct.vms_angvec, ptr %189, i32 0, i32 1, !dbg !3107
  %191 = load i16, ptr %190, align 2, !dbg !3107
  %192 = sext i16 %191 to i32, !dbg !3106
  %193 = icmp ne i32 %188, %192, !dbg !3108
  br i1 %193, label %194, label %252, !dbg !3108

194:                                              ; preds = %184
  %195 = load i32, ptr %7, align 4, !dbg !3109
  %196 = icmp eq i32 %195, 0, !dbg !3112
  br i1 %196, label %197, label %198, !dbg !3112

197:                                              ; preds = %194
  store i32 0, ptr %13, align 4, !dbg !3113
  br label %198, !dbg !3114

198:                                              ; preds = %197, %194
  %199 = load ptr, ptr %20, align 8, !dbg !3115
  %200 = getelementptr inbounds nuw %struct.vms_angvec, ptr %199, i32 0, i32 1, !dbg !3116
  %201 = load i16, ptr %200, align 2, !dbg !3116
  %202 = load i32, ptr %4, align 4, !dbg !3117
  %203 = sext i32 %202 to i64, !dbg !3118
  %204 = getelementptr inbounds [350 x %struct.ai_local], ptr @Ai_local_info, i64 0, i64 %203, !dbg !3118
  %205 = getelementptr inbounds nuw %struct.ai_local, ptr %204, i32 0, i32 15, !dbg !3119
  %206 = load i32, ptr %19, align 4, !dbg !3120
  %207 = sext i32 %206 to i64, !dbg !3118
  %208 = getelementptr inbounds [10 x %struct.vms_angvec], ptr %205, i64 0, i64 %207, !dbg !3118
  %209 = getelementptr inbounds nuw %struct.vms_angvec, ptr %208, i32 0, i32 1, !dbg !3121
  store i16 %201, ptr %209, align 2, !dbg !3122
  %210 = load ptr, ptr %20, align 8, !dbg !3123
  %211 = getelementptr inbounds nuw %struct.vms_angvec, ptr %210, i32 0, i32 1, !dbg !3124
  %212 = load i16, ptr %211, align 2, !dbg !3124
  %213 = sext i16 %212 to i32, !dbg !3123
  %214 = load ptr, ptr %21, align 8, !dbg !3125
  %215 = getelementptr inbounds nuw %struct.vms_angvec, ptr %214, i32 0, i32 1, !dbg !3126
  %216 = load i16, ptr %215, align 2, !dbg !3126
  %217 = sext i16 %216 to i32, !dbg !3125
  %218 = sub nsw i32 %213, %217, !dbg !3127
  store i32 %218, ptr %17, align 4, !dbg !3128
  %219 = load i32, ptr %17, align 4, !dbg !3129
  %220 = icmp sge i32 %219, 32768, !dbg !3131
  br i1 %220, label %221, label %222, !dbg !3131

221:                                              ; preds = %198
  store i32 -4096, ptr %18, align 4, !dbg !3132
  br label %233, !dbg !3133

222:                                              ; preds = %198
  %223 = load i32, ptr %17, align 4, !dbg !3134
  %224 = icmp sge i32 %223, 0, !dbg !3136
  br i1 %224, label %225, label %226, !dbg !3136

225:                                              ; preds = %222
  store i32 4096, ptr %18, align 4, !dbg !3137
  br label %232, !dbg !3138

226:                                              ; preds = %222
  %227 = load i32, ptr %17, align 4, !dbg !3139
  %228 = icmp sge i32 %227, -32768, !dbg !3141
  br i1 %228, label %229, label %230, !dbg !3141

229:                                              ; preds = %226
  store i32 -4096, ptr %18, align 4, !dbg !3142
  br label %231, !dbg !3143

230:                                              ; preds = %226
  store i32 4096, ptr %18, align 4, !dbg !3144
  br label %231

231:                                              ; preds = %230, %229
  br label %232

232:                                              ; preds = %231, %225
  br label %233

233:                                              ; preds = %232, %221
  %234 = load i32, ptr %15, align 4, !dbg !3145
  %235 = icmp ne i32 %234, 1, !dbg !3147
  br i1 %235, label %236, label %240, !dbg !3147

236:                                              ; preds = %233
  %237 = load i32, ptr %15, align 4, !dbg !3148
  %238 = load i32, ptr %18, align 4, !dbg !3149
  %239 = mul nsw i32 %238, %237, !dbg !3149
  store i32 %239, ptr %18, align 4, !dbg !3149
  br label %240, !dbg !3150

240:                                              ; preds = %236, %233
  %241 = load i32, ptr %18, align 4, !dbg !3151
  %242 = sdiv i32 %241, 16, !dbg !3152
  %243 = trunc i32 %242 to i16, !dbg !3151
  %244 = load i32, ptr %4, align 4, !dbg !3153
  %245 = sext i32 %244 to i64, !dbg !3154
  %246 = getelementptr inbounds [350 x %struct.ai_local], ptr @Ai_local_info, i64 0, i64 %245, !dbg !3154
  %247 = getelementptr inbounds nuw %struct.ai_local, ptr %246, i32 0, i32 16, !dbg !3155
  %248 = load i32, ptr %19, align 4, !dbg !3156
  %249 = sext i32 %248 to i64, !dbg !3154
  %250 = getelementptr inbounds [10 x %struct.vms_angvec], ptr %247, i64 0, i64 %249, !dbg !3154
  %251 = getelementptr inbounds nuw %struct.vms_angvec, ptr %250, i32 0, i32 1, !dbg !3157
  store i16 %243, ptr %251, align 2, !dbg !3158
  br label %252, !dbg !3159

252:                                              ; preds = %240, %184
  %253 = load ptr, ptr %20, align 8, !dbg !3160
  %254 = getelementptr inbounds nuw %struct.vms_angvec, ptr %253, i32 0, i32 2, !dbg !3162
  %255 = load i16, ptr %254, align 2, !dbg !3162
  %256 = sext i16 %255 to i32, !dbg !3160
  %257 = load ptr, ptr %21, align 8, !dbg !3163
  %258 = getelementptr inbounds nuw %struct.vms_angvec, ptr %257, i32 0, i32 2, !dbg !3164
  %259 = load i16, ptr %258, align 2, !dbg !3164
  %260 = sext i16 %259 to i32, !dbg !3163
  %261 = icmp ne i32 %256, %260, !dbg !3165
  br i1 %261, label %262, label %320, !dbg !3165

262:                                              ; preds = %252
  %263 = load i32, ptr %7, align 4, !dbg !3166
  %264 = icmp eq i32 %263, 0, !dbg !3169
  br i1 %264, label %265, label %266, !dbg !3169

265:                                              ; preds = %262
  store i32 0, ptr %13, align 4, !dbg !3170
  br label %266, !dbg !3171

266:                                              ; preds = %265, %262
  %267 = load ptr, ptr %20, align 8, !dbg !3172
  %268 = getelementptr inbounds nuw %struct.vms_angvec, ptr %267, i32 0, i32 2, !dbg !3173
  %269 = load i16, ptr %268, align 2, !dbg !3173
  %270 = load i32, ptr %4, align 4, !dbg !3174
  %271 = sext i32 %270 to i64, !dbg !3175
  %272 = getelementptr inbounds [350 x %struct.ai_local], ptr @Ai_local_info, i64 0, i64 %271, !dbg !3175
  %273 = getelementptr inbounds nuw %struct.ai_local, ptr %272, i32 0, i32 15, !dbg !3176
  %274 = load i32, ptr %19, align 4, !dbg !3177
  %275 = sext i32 %274 to i64, !dbg !3175
  %276 = getelementptr inbounds [10 x %struct.vms_angvec], ptr %273, i64 0, i64 %275, !dbg !3175
  %277 = getelementptr inbounds nuw %struct.vms_angvec, ptr %276, i32 0, i32 2, !dbg !3178
  store i16 %269, ptr %277, align 2, !dbg !3179
  %278 = load ptr, ptr %20, align 8, !dbg !3180
  %279 = getelementptr inbounds nuw %struct.vms_angvec, ptr %278, i32 0, i32 2, !dbg !3181
  %280 = load i16, ptr %279, align 2, !dbg !3181
  %281 = sext i16 %280 to i32, !dbg !3180
  %282 = load ptr, ptr %21, align 8, !dbg !3182
  %283 = getelementptr inbounds nuw %struct.vms_angvec, ptr %282, i32 0, i32 2, !dbg !3183
  %284 = load i16, ptr %283, align 2, !dbg !3183
  %285 = sext i16 %284 to i32, !dbg !3182
  %286 = sub nsw i32 %281, %285, !dbg !3184
  store i32 %286, ptr %17, align 4, !dbg !3185
  %287 = load i32, ptr %17, align 4, !dbg !3186
  %288 = icmp sge i32 %287, 32768, !dbg !3188
  br i1 %288, label %289, label %290, !dbg !3188

289:                                              ; preds = %266
  store i32 -4096, ptr %18, align 4, !dbg !3189
  br label %301, !dbg !3190

290:                                              ; preds = %266
  %291 = load i32, ptr %17, align 4, !dbg !3191
  %292 = icmp sge i32 %291, 0, !dbg !3193
  br i1 %292, label %293, label %294, !dbg !3193

293:                                              ; preds = %290
  store i32 4096, ptr %18, align 4, !dbg !3194
  br label %300, !dbg !3195

294:                                              ; preds = %290
  %295 = load i32, ptr %17, align 4, !dbg !3196
  %296 = icmp sge i32 %295, -32768, !dbg !3198
  br i1 %296, label %297, label %298, !dbg !3198

297:                                              ; preds = %294
  store i32 -4096, ptr %18, align 4, !dbg !3199
  br label %299, !dbg !3200

298:                                              ; preds = %294
  store i32 4096, ptr %18, align 4, !dbg !3201
  br label %299

299:                                              ; preds = %298, %297
  br label %300

300:                                              ; preds = %299, %293
  br label %301

301:                                              ; preds = %300, %289
  %302 = load i32, ptr %15, align 4, !dbg !3202
  %303 = icmp ne i32 %302, 1, !dbg !3204
  br i1 %303, label %304, label %308, !dbg !3204

304:                                              ; preds = %301
  %305 = load i32, ptr %15, align 4, !dbg !3205
  %306 = load i32, ptr %18, align 4, !dbg !3206
  %307 = mul nsw i32 %306, %305, !dbg !3206
  store i32 %307, ptr %18, align 4, !dbg !3206
  br label %308, !dbg !3207

308:                                              ; preds = %304, %301
  %309 = load i32, ptr %18, align 4, !dbg !3208
  %310 = sdiv i32 %309, 16, !dbg !3209
  %311 = trunc i32 %310 to i16, !dbg !3208
  %312 = load i32, ptr %4, align 4, !dbg !3210
  %313 = sext i32 %312 to i64, !dbg !3211
  %314 = getelementptr inbounds [350 x %struct.ai_local], ptr @Ai_local_info, i64 0, i64 %313, !dbg !3211
  %315 = getelementptr inbounds nuw %struct.ai_local, ptr %314, i32 0, i32 16, !dbg !3212
  %316 = load i32, ptr %19, align 4, !dbg !3213
  %317 = sext i32 %316 to i64, !dbg !3211
  %318 = getelementptr inbounds [10 x %struct.vms_angvec], ptr %315, i64 0, i64 %317, !dbg !3211
  %319 = getelementptr inbounds nuw %struct.vms_angvec, ptr %318, i32 0, i32 2, !dbg !3214
  store i16 %311, ptr %319, align 2, !dbg !3215
  br label %320, !dbg !3216

320:                                              ; preds = %308, %252
  br label %321, !dbg !3217

321:                                              ; preds = %320, %115
  %322 = load i32, ptr %16, align 4, !dbg !3218
  %323 = add nsw i32 %322, 1, !dbg !3218
  store i32 %323, ptr %16, align 4, !dbg !3218
  br label %83, !dbg !3219, !llvm.loop !3220

324:                                              ; preds = %83
  %325 = load i32, ptr %13, align 4, !dbg !3222
  %326 = icmp ne i32 %325, 0, !dbg !3222
  br i1 %326, label %327, label %374, !dbg !3222

327:                                              ; preds = %324
    #dbg_declare(ptr %22, !3224, !DIExpression(), !3226)
  %328 = load ptr, ptr %3, align 8, !dbg !3227
  %329 = ptrtoint ptr %328 to i64, !dbg !3228
  %330 = sub i64 %329, ptrtoint (ptr @Objects to i64), !dbg !3228
  %331 = sdiv exact i64 %330, 268, !dbg !3228
  %332 = getelementptr inbounds [350 x %struct.ai_local], ptr @Ai_local_info, i64 0, i64 %331, !dbg !3229
  store ptr %332, ptr %22, align 8, !dbg !3226
  %333 = load ptr, ptr %22, align 8, !dbg !3230
  %334 = getelementptr inbounds nuw %struct.ai_local, ptr %333, i32 0, i32 17, !dbg !3231
  %335 = load i32, ptr %7, align 4, !dbg !3232
  %336 = sext i32 %335 to i64, !dbg !3230
  %337 = getelementptr inbounds [10 x i8], ptr %334, i64 0, i64 %336, !dbg !3230
  %338 = load i8, ptr %337, align 1, !dbg !3230
  %339 = load ptr, ptr %22, align 8, !dbg !3233
  %340 = getelementptr inbounds nuw %struct.ai_local, ptr %339, i32 0, i32 18, !dbg !3234
  %341 = load i32, ptr %7, align 4, !dbg !3235
  %342 = sext i32 %341 to i64, !dbg !3233
  %343 = getelementptr inbounds [10 x i8], ptr %340, i64 0, i64 %342, !dbg !3233
  store i8 %338, ptr %343, align 1, !dbg !3236
  %344 = load ptr, ptr %22, align 8, !dbg !3237
  %345 = getelementptr inbounds nuw %struct.ai_local, ptr %344, i32 0, i32 18, !dbg !3239
  %346 = load i32, ptr %7, align 4, !dbg !3240
  %347 = sext i32 %346 to i64, !dbg !3237
  %348 = getelementptr inbounds [10 x i8], ptr %345, i64 0, i64 %347, !dbg !3237
  %349 = load i8, ptr %348, align 1, !dbg !3237
  %350 = sext i8 %349 to i32, !dbg !3237
  %351 = icmp eq i32 %350, 6, !dbg !3241
  br i1 %351, label %352, label %358, !dbg !3241

352:                                              ; preds = %327
  %353 = load ptr, ptr %22, align 8, !dbg !3242
  %354 = getelementptr inbounds nuw %struct.ai_local, ptr %353, i32 0, i32 17, !dbg !3243
  %355 = load i32, ptr %7, align 4, !dbg !3244
  %356 = sext i32 %355 to i64, !dbg !3242
  %357 = getelementptr inbounds [10 x i8], ptr %354, i64 0, i64 %356, !dbg !3242
  store i8 5, ptr %357, align 1, !dbg !3245
  br label %358, !dbg !3242

358:                                              ; preds = %352, %327
  %359 = load ptr, ptr %22, align 8, !dbg !3246
  %360 = getelementptr inbounds nuw %struct.ai_local, ptr %359, i32 0, i32 18, !dbg !3248
  %361 = load i32, ptr %7, align 4, !dbg !3249
  %362 = sext i32 %361 to i64, !dbg !3246
  %363 = getelementptr inbounds [10 x i8], ptr %360, i64 0, i64 %362, !dbg !3246
  %364 = load i8, ptr %363, align 1, !dbg !3246
  %365 = sext i8 %364 to i32, !dbg !3246
  %366 = icmp eq i32 %365, 4, !dbg !3250
  br i1 %366, label %367, label %373, !dbg !3250

367:                                              ; preds = %358
  %368 = load ptr, ptr %22, align 8, !dbg !3251
  %369 = getelementptr inbounds nuw %struct.ai_local, ptr %368, i32 0, i32 17, !dbg !3252
  %370 = load i32, ptr %7, align 4, !dbg !3253
  %371 = sext i32 %370 to i64, !dbg !3251
  %372 = getelementptr inbounds [10 x i8], ptr %369, i64 0, i64 %371, !dbg !3251
  store i8 3, ptr %372, align 1, !dbg !3254
  br label %373, !dbg !3251

373:                                              ; preds = %367, %358
  br label %374, !dbg !3255

374:                                              ; preds = %373, %324
  br label %375, !dbg !3256

375:                                              ; preds = %374
  %376 = load i32, ptr %7, align 4, !dbg !3257
  %377 = add nsw i32 %376, 1, !dbg !3257
  store i32 %377, ptr %7, align 4, !dbg !3257
  br label %74, !dbg !3258, !llvm.loop !3259

378:                                              ; preds = %74
  %379 = load i32, ptr %13, align 4, !dbg !3261
  %380 = icmp eq i32 %379, 1, !dbg !3263
  br i1 %380, label %381, label %389, !dbg !3263

381:                                              ; preds = %378
  %382 = load ptr, ptr %11, align 8, !dbg !3264
  %383 = getelementptr inbounds nuw %struct.ai_static, ptr %382, i32 0, i32 1, !dbg !3265
  %384 = getelementptr inbounds [11 x i8], ptr %383, i64 0, i64 2, !dbg !3264
  %385 = load i8, ptr %384, align 1, !dbg !3264
  %386 = load ptr, ptr %11, align 8, !dbg !3266
  %387 = getelementptr inbounds nuw %struct.ai_static, ptr %386, i32 0, i32 1, !dbg !3267
  %388 = getelementptr inbounds [11 x i8], ptr %387, i64 0, i64 1, !dbg !3266
  store i8 %385, ptr %388, align 1, !dbg !3268
  br label %389, !dbg !3266

389:                                              ; preds = %381, %378
  store i32 1, ptr %2, align 4, !dbg !3269
  br label %390, !dbg !3269

390:                                              ; preds = %389, %50
  %391 = load i32, ptr %2, align 4, !dbg !3270
  ret i32 %391, !dbg !3270
}

declare noundef i32 @_Z20robot_get_anim_statePP8jointposiii(ptr noundef, i32 noundef, i32 noundef, i32 noundef) #2

; Function Attrs: mustprogress noinline ssp uwtable(sync)
define void @_Z18ai_frame_animationP6object(ptr noundef %0) #1 !dbg !3271 {
  %2 = alloca ptr, align 8
  %3 = alloca i32, align 4
  %4 = alloca i32, align 4
  %5 = alloca i32, align 4
  %6 = alloca i32, align 4
  %7 = alloca i32, align 4
  %8 = alloca ptr, align 8
  %9 = alloca ptr, align 8
  %10 = alloca ptr, align 8
  store ptr %0, ptr %2, align 8
    #dbg_declare(ptr %2, !3272, !DIExpression(), !3273)
    #dbg_declare(ptr %3, !3274, !DIExpression(), !3275)
  %11 = load ptr, ptr %2, align 8, !dbg !3276
  %12 = ptrtoint ptr %11 to i64, !dbg !3277
  %13 = sub i64 %12, ptrtoint (ptr @Objects to i64), !dbg !3277
  %14 = sdiv exact i64 %13, 268, !dbg !3277
  %15 = trunc i64 %14 to i32, !dbg !3276
  store i32 %15, ptr %3, align 4, !dbg !3275
    #dbg_declare(ptr %4, !3278, !DIExpression(), !3279)
    #dbg_declare(ptr %5, !3280, !DIExpression(), !3281)
  %16 = load ptr, ptr %2, align 8, !dbg !3282
  %17 = getelementptr inbounds nuw %struct.object, ptr %16, i32 0, i32 23, !dbg !3283
  %18 = getelementptr inbounds nuw %struct.polyobj_info, ptr %17, i32 0, i32 0, !dbg !3284
  %19 = load i32, ptr %18, align 4, !dbg !3284
  %20 = sext i32 %19 to i64, !dbg !3285
  %21 = getelementptr inbounds [0 x %struct.polymodel], ptr @Polygon_models, i64 0, i64 %20, !dbg !3285
  %22 = getelementptr inbounds nuw %struct.polymodel, ptr %21, i32 0, i32 0, !dbg !3286
  %23 = load i32, ptr %22, align 8, !dbg !3286
  store i32 %23, ptr %5, align 4, !dbg !3287
  store i32 1, ptr %4, align 4, !dbg !3288
  br label %24, !dbg !3290

24:                                               ; preds = %205, %1
  %25 = load i32, ptr %4, align 4, !dbg !3291
  %26 = load i32, ptr %5, align 4, !dbg !3293
  %27 = icmp slt i32 %25, %26, !dbg !3294
  br i1 %27, label %28, label %208, !dbg !3295

28:                                               ; preds = %24
    #dbg_declare(ptr %6, !3296, !DIExpression(), !3298)
    #dbg_declare(ptr %7, !3299, !DIExpression(), !3300)
    #dbg_declare(ptr %8, !3301, !DIExpression(), !3302)
  %29 = load ptr, ptr %2, align 8, !dbg !3303
  %30 = getelementptr inbounds nuw %struct.object, ptr %29, i32 0, i32 23, !dbg !3304
  %31 = getelementptr inbounds nuw %struct.polyobj_info, ptr %30, i32 0, i32 1, !dbg !3305
  %32 = load i32, ptr %4, align 4, !dbg !3306
  %33 = sext i32 %32 to i64, !dbg !3303
  %34 = getelementptr inbounds [10 x %struct.vms_angvec], ptr %31, i64 0, i64 %33, !dbg !3303
  store ptr %34, ptr %8, align 8, !dbg !3302
    #dbg_declare(ptr %9, !3307, !DIExpression(), !3308)
  %35 = load i32, ptr %3, align 4, !dbg !3309
  %36 = sext i32 %35 to i64, !dbg !3310
  %37 = getelementptr inbounds [350 x %struct.ai_local], ptr @Ai_local_info, i64 0, i64 %36, !dbg !3310
  %38 = getelementptr inbounds nuw %struct.ai_local, ptr %37, i32 0, i32 15, !dbg !3311
  %39 = load i32, ptr %4, align 4, !dbg !3312
  %40 = sext i32 %39 to i64, !dbg !3310
  %41 = getelementptr inbounds [10 x %struct.vms_angvec], ptr %38, i64 0, i64 %40, !dbg !3310
  store ptr %41, ptr %9, align 8, !dbg !3308
    #dbg_declare(ptr %10, !3313, !DIExpression(), !3314)
  %42 = load i32, ptr %3, align 4, !dbg !3315
  %43 = sext i32 %42 to i64, !dbg !3316
  %44 = getelementptr inbounds [350 x %struct.ai_local], ptr @Ai_local_info, i64 0, i64 %43, !dbg !3316
  %45 = getelementptr inbounds nuw %struct.ai_local, ptr %44, i32 0, i32 16, !dbg !3317
  %46 = load i32, ptr %4, align 4, !dbg !3318
  %47 = sext i32 %46 to i64, !dbg !3316
  %48 = getelementptr inbounds [10 x %struct.vms_angvec], ptr %45, i64 0, i64 %47, !dbg !3316
  store ptr %48, ptr %10, align 8, !dbg !3314
  %49 = load ptr, ptr %9, align 8, !dbg !3319
  %50 = getelementptr inbounds nuw %struct.vms_angvec, ptr %49, i32 0, i32 0, !dbg !3320
  %51 = load i16, ptr %50, align 2, !dbg !3320
  %52 = sext i16 %51 to i32, !dbg !3319
  %53 = load ptr, ptr %8, align 8, !dbg !3321
  %54 = getelementptr inbounds nuw %struct.vms_angvec, ptr %53, i32 0, i32 0, !dbg !3322
  %55 = load i16, ptr %54, align 2, !dbg !3322
  %56 = sext i16 %55 to i32, !dbg !3321
  %57 = sub nsw i32 %52, %56, !dbg !3323
  store i32 %57, ptr %6, align 4, !dbg !3324
  %58 = load i32, ptr %6, align 4, !dbg !3325
  %59 = icmp sgt i32 %58, 32767, !dbg !3327
  br i1 %59, label %60, label %63, !dbg !3327

60:                                               ; preds = %28
  %61 = load i32, ptr %6, align 4, !dbg !3328
  %62 = sub nsw i32 %61, 65536, !dbg !3329
  store i32 %62, ptr %6, align 4, !dbg !3330
  br label %70, !dbg !3331

63:                                               ; preds = %28
  %64 = load i32, ptr %6, align 4, !dbg !3332
  %65 = icmp slt i32 %64, -32767, !dbg !3334
  br i1 %65, label %66, label %69, !dbg !3334

66:                                               ; preds = %63
  %67 = load i32, ptr %6, align 4, !dbg !3335
  %68 = add nsw i32 65536, %67, !dbg !3336
  store i32 %68, ptr %6, align 4, !dbg !3337
  br label %69, !dbg !3338

69:                                               ; preds = %66, %63
  br label %70

70:                                               ; preds = %69, %60
  %71 = load i32, ptr %6, align 4, !dbg !3339
  %72 = icmp ne i32 %71, 0, !dbg !3339
  br i1 %72, label %73, label %100, !dbg !3339

73:                                               ; preds = %70
  %74 = load ptr, ptr %10, align 8, !dbg !3341
  %75 = getelementptr inbounds nuw %struct.vms_angvec, ptr %74, i32 0, i32 0, !dbg !3343
  %76 = load i16, ptr %75, align 2, !dbg !3343
  %77 = sext i16 %76 to i32, !dbg !3341
  %78 = load i32, ptr @FrameTime, align 4, !dbg !3344
  %79 = call noundef i32 @_Z6fixmulii(i32 noundef %77, i32 noundef %78), !dbg !3345
  %80 = mul nsw i32 %79, 16, !dbg !3346
  store i32 %80, ptr %7, align 4, !dbg !3347
  %81 = load i32, ptr %7, align 4, !dbg !3348
  %82 = load ptr, ptr %8, align 8, !dbg !3349
  %83 = getelementptr inbounds nuw %struct.vms_angvec, ptr %82, i32 0, i32 0, !dbg !3350
  %84 = load i16, ptr %83, align 2, !dbg !3351
  %85 = sext i16 %84 to i32, !dbg !3351
  %86 = add nsw i32 %85, %81, !dbg !3351
  %87 = trunc i32 %86 to i16, !dbg !3351
  store i16 %87, ptr %83, align 2, !dbg !3351
  %88 = load i32, ptr %6, align 4, !dbg !3352
  %89 = call i32 @llvm.abs.i32(i32 %88, i1 true), !dbg !3354
  %90 = load i32, ptr %7, align 4, !dbg !3355
  %91 = call i32 @llvm.abs.i32(i32 %90, i1 true), !dbg !3356
  %92 = icmp slt i32 %89, %91, !dbg !3357
  br i1 %92, label %93, label %99, !dbg !3357

93:                                               ; preds = %73
  %94 = load ptr, ptr %9, align 8, !dbg !3358
  %95 = getelementptr inbounds nuw %struct.vms_angvec, ptr %94, i32 0, i32 0, !dbg !3359
  %96 = load i16, ptr %95, align 2, !dbg !3359
  %97 = load ptr, ptr %8, align 8, !dbg !3360
  %98 = getelementptr inbounds nuw %struct.vms_angvec, ptr %97, i32 0, i32 0, !dbg !3361
  store i16 %96, ptr %98, align 2, !dbg !3362
  br label %99, !dbg !3360

99:                                               ; preds = %93, %73
  br label %100, !dbg !3363

100:                                              ; preds = %99, %70
  %101 = load ptr, ptr %9, align 8, !dbg !3364
  %102 = getelementptr inbounds nuw %struct.vms_angvec, ptr %101, i32 0, i32 1, !dbg !3365
  %103 = load i16, ptr %102, align 2, !dbg !3365
  %104 = sext i16 %103 to i32, !dbg !3364
  %105 = load ptr, ptr %8, align 8, !dbg !3366
  %106 = getelementptr inbounds nuw %struct.vms_angvec, ptr %105, i32 0, i32 1, !dbg !3367
  %107 = load i16, ptr %106, align 2, !dbg !3367
  %108 = sext i16 %107 to i32, !dbg !3366
  %109 = sub nsw i32 %104, %108, !dbg !3368
  store i32 %109, ptr %6, align 4, !dbg !3369
  %110 = load i32, ptr %6, align 4, !dbg !3370
  %111 = icmp sgt i32 %110, 32767, !dbg !3372
  br i1 %111, label %112, label %115, !dbg !3372

112:                                              ; preds = %100
  %113 = load i32, ptr %6, align 4, !dbg !3373
  %114 = sub nsw i32 %113, 65536, !dbg !3374
  store i32 %114, ptr %6, align 4, !dbg !3375
  br label %122, !dbg !3376

115:                                              ; preds = %100
  %116 = load i32, ptr %6, align 4, !dbg !3377
  %117 = icmp slt i32 %116, -32767, !dbg !3379
  br i1 %117, label %118, label %121, !dbg !3379

118:                                              ; preds = %115
  %119 = load i32, ptr %6, align 4, !dbg !3380
  %120 = add nsw i32 65536, %119, !dbg !3381
  store i32 %120, ptr %6, align 4, !dbg !3382
  br label %121, !dbg !3383

121:                                              ; preds = %118, %115
  br label %122

122:                                              ; preds = %121, %112
  %123 = load i32, ptr %6, align 4, !dbg !3384
  %124 = icmp ne i32 %123, 0, !dbg !3384
  br i1 %124, label %125, label %152, !dbg !3384

125:                                              ; preds = %122
  %126 = load ptr, ptr %10, align 8, !dbg !3386
  %127 = getelementptr inbounds nuw %struct.vms_angvec, ptr %126, i32 0, i32 1, !dbg !3388
  %128 = load i16, ptr %127, align 2, !dbg !3388
  %129 = sext i16 %128 to i32, !dbg !3386
  %130 = load i32, ptr @FrameTime, align 4, !dbg !3389
  %131 = call noundef i32 @_Z6fixmulii(i32 noundef %129, i32 noundef %130), !dbg !3390
  %132 = mul nsw i32 %131, 16, !dbg !3391
  store i32 %132, ptr %7, align 4, !dbg !3392
  %133 = load i32, ptr %7, align 4, !dbg !3393
  %134 = load ptr, ptr %8, align 8, !dbg !3394
  %135 = getelementptr inbounds nuw %struct.vms_angvec, ptr %134, i32 0, i32 1, !dbg !3395
  %136 = load i16, ptr %135, align 2, !dbg !3396
  %137 = sext i16 %136 to i32, !dbg !3396
  %138 = add nsw i32 %137, %133, !dbg !3396
  %139 = trunc i32 %138 to i16, !dbg !3396
  store i16 %139, ptr %135, align 2, !dbg !3396
  %140 = load i32, ptr %6, align 4, !dbg !3397
  %141 = call i32 @llvm.abs.i32(i32 %140, i1 true), !dbg !3399
  %142 = load i32, ptr %7, align 4, !dbg !3400
  %143 = call i32 @llvm.abs.i32(i32 %142, i1 true), !dbg !3401
  %144 = icmp slt i32 %141, %143, !dbg !3402
  br i1 %144, label %145, label %151, !dbg !3402

145:                                              ; preds = %125
  %146 = load ptr, ptr %9, align 8, !dbg !3403
  %147 = getelementptr inbounds nuw %struct.vms_angvec, ptr %146, i32 0, i32 1, !dbg !3404
  %148 = load i16, ptr %147, align 2, !dbg !3404
  %149 = load ptr, ptr %8, align 8, !dbg !3405
  %150 = getelementptr inbounds nuw %struct.vms_angvec, ptr %149, i32 0, i32 1, !dbg !3406
  store i16 %148, ptr %150, align 2, !dbg !3407
  br label %151, !dbg !3405

151:                                              ; preds = %145, %125
  br label %152, !dbg !3408

152:                                              ; preds = %151, %122
  %153 = load ptr, ptr %9, align 8, !dbg !3409
  %154 = getelementptr inbounds nuw %struct.vms_angvec, ptr %153, i32 0, i32 2, !dbg !3410
  %155 = load i16, ptr %154, align 2, !dbg !3410
  %156 = sext i16 %155 to i32, !dbg !3409
  %157 = load ptr, ptr %8, align 8, !dbg !3411
  %158 = getelementptr inbounds nuw %struct.vms_angvec, ptr %157, i32 0, i32 2, !dbg !3412
  %159 = load i16, ptr %158, align 2, !dbg !3412
  %160 = sext i16 %159 to i32, !dbg !3411
  %161 = sub nsw i32 %156, %160, !dbg !3413
  store i32 %161, ptr %6, align 4, !dbg !3414
  %162 = load i32, ptr %6, align 4, !dbg !3415
  %163 = icmp sgt i32 %162, 32767, !dbg !3417
  br i1 %163, label %164, label %167, !dbg !3417

164:                                              ; preds = %152
  %165 = load i32, ptr %6, align 4, !dbg !3418
  %166 = sub nsw i32 %165, 65536, !dbg !3419
  store i32 %166, ptr %6, align 4, !dbg !3420
  br label %174, !dbg !3421

167:                                              ; preds = %152
  %168 = load i32, ptr %6, align 4, !dbg !3422
  %169 = icmp slt i32 %168, -32767, !dbg !3424
  br i1 %169, label %170, label %173, !dbg !3424

170:                                              ; preds = %167
  %171 = load i32, ptr %6, align 4, !dbg !3425
  %172 = add nsw i32 65536, %171, !dbg !3426
  store i32 %172, ptr %6, align 4, !dbg !3427
  br label %173, !dbg !3428

173:                                              ; preds = %170, %167
  br label %174

174:                                              ; preds = %173, %164
  %175 = load i32, ptr %6, align 4, !dbg !3429
  %176 = icmp ne i32 %175, 0, !dbg !3429
  br i1 %176, label %177, label %204, !dbg !3429

177:                                              ; preds = %174
  %178 = load ptr, ptr %10, align 8, !dbg !3431
  %179 = getelementptr inbounds nuw %struct.vms_angvec, ptr %178, i32 0, i32 2, !dbg !3433
  %180 = load i16, ptr %179, align 2, !dbg !3433
  %181 = sext i16 %180 to i32, !dbg !3431
  %182 = load i32, ptr @FrameTime, align 4, !dbg !3434
  %183 = call noundef i32 @_Z6fixmulii(i32 noundef %181, i32 noundef %182), !dbg !3435
  %184 = mul nsw i32 %183, 16, !dbg !3436
  store i32 %184, ptr %7, align 4, !dbg !3437
  %185 = load i32, ptr %7, align 4, !dbg !3438
  %186 = load ptr, ptr %8, align 8, !dbg !3439
  %187 = getelementptr inbounds nuw %struct.vms_angvec, ptr %186, i32 0, i32 2, !dbg !3440
  %188 = load i16, ptr %187, align 2, !dbg !3441
  %189 = sext i16 %188 to i32, !dbg !3441
  %190 = add nsw i32 %189, %185, !dbg !3441
  %191 = trunc i32 %190 to i16, !dbg !3441
  store i16 %191, ptr %187, align 2, !dbg !3441
  %192 = load i32, ptr %6, align 4, !dbg !3442
  %193 = call i32 @llvm.abs.i32(i32 %192, i1 true), !dbg !3444
  %194 = load i32, ptr %7, align 4, !dbg !3445
  %195 = call i32 @llvm.abs.i32(i32 %194, i1 true), !dbg !3446
  %196 = icmp slt i32 %193, %195, !dbg !3447
  br i1 %196, label %197, label %203, !dbg !3447

197:                                              ; preds = %177
  %198 = load ptr, ptr %9, align 8, !dbg !3448
  %199 = getelementptr inbounds nuw %struct.vms_angvec, ptr %198, i32 0, i32 2, !dbg !3449
  %200 = load i16, ptr %199, align 2, !dbg !3449
  %201 = load ptr, ptr %8, align 8, !dbg !3450
  %202 = getelementptr inbounds nuw %struct.vms_angvec, ptr %201, i32 0, i32 2, !dbg !3451
  store i16 %200, ptr %202, align 2, !dbg !3452
  br label %203, !dbg !3450

203:                                              ; preds = %197, %177
  br label %204, !dbg !3453

204:                                              ; preds = %203, %174
  br label %205, !dbg !3454

205:                                              ; preds = %204
  %206 = load i32, ptr %4, align 4, !dbg !3455
  %207 = add nsw i32 %206, 1, !dbg !3455
  store i32 %207, ptr %4, align 4, !dbg !3455
  br label %24, !dbg !3456, !llvm.loop !3457

208:                                              ; preds = %24
  ret void, !dbg !3459
}

; Function Attrs: mustprogress noinline nounwind ssp uwtable(sync)
define linkonce_odr noundef i32 @_Z6fixmulii(i32 noundef %0, i32 noundef %1) #0 !dbg !3460 {
  %3 = alloca i32, align 4
  %4 = alloca i32, align 4
  store i32 %0, ptr %3, align 4
    #dbg_declare(ptr %3, !3461, !DIExpression(), !3462)
  store i32 %1, ptr %4, align 4
    #dbg_declare(ptr %4, !3463, !DIExpression(), !3464)
  %5 = load i32, ptr %3, align 4, !dbg !3465
  %6 = sext i32 %5 to i64, !dbg !3465
  %7 = load i32, ptr %4, align 4, !dbg !3466
  %8 = sext i32 %7 to i64, !dbg !3466
  %9 = mul nsw i64 %6, %8, !dbg !3467
  %10 = ashr i64 %9, 16, !dbg !3468
  %11 = trunc i64 %10 to i32, !dbg !3469
  ret i32 %11, !dbg !3470
}

; Function Attrs: mustprogress noinline ssp uwtable(sync)
define void @_Z18set_next_fire_timeP6objectP8ai_localP10robot_infoi(ptr noundef %0, ptr noundef %1, ptr noundef %2, i32 noundef %3) #1 !dbg !3471 {
  %5 = alloca ptr, align 8
  %6 = alloca ptr, align 8
  %7 = alloca ptr, align 8
  %8 = alloca i32, align 4
  %9 = alloca i32, align 4
  %10 = alloca i32, align 4
  store ptr %0, ptr %5, align 8
    #dbg_declare(ptr %5, !3474, !DIExpression(), !3475)
  store ptr %1, ptr %6, align 8
    #dbg_declare(ptr %6, !3476, !DIExpression(), !3477)
  store ptr %2, ptr %7, align 8
    #dbg_declare(ptr %7, !3478, !DIExpression(), !3479)
  store i32 %3, ptr %8, align 4
    #dbg_declare(ptr %8, !3480, !DIExpression(), !3481)
  %11 = load i32, ptr %8, align 4, !dbg !3482
  %12 = icmp ne i32 %11, 0, !dbg !3484
  br i1 %12, label %19, label %13, !dbg !3485

13:                                               ; preds = %4
  %14 = load ptr, ptr %7, align 8, !dbg !3486
  %15 = getelementptr inbounds nuw %struct.robot_info, ptr %14, i32 0, i32 8, !dbg !3487
  %16 = load i8, ptr %15, align 1, !dbg !3487
  %17 = sext i8 %16 to i32, !dbg !3486
  %18 = icmp eq i32 %17, -1, !dbg !3488
  br i1 %18, label %19, label %35, !dbg !3485

19:                                               ; preds = %13, %4
  %20 = load ptr, ptr %5, align 8, !dbg !3489
  %21 = getelementptr inbounds nuw %struct.object, ptr %20, i32 0, i32 22, !dbg !3491
  %22 = getelementptr inbounds nuw %struct.ai_static, ptr %21, i32 0, i32 0, !dbg !3492
  %23 = load i8, ptr %22, align 4, !dbg !3492
  %24 = zext i8 %23 to i32, !dbg !3489
  %25 = icmp ne i32 %24, 132, !dbg !3493
  br i1 %25, label %29, label %26, !dbg !3494

26:                                               ; preds = %19
  %27 = call noundef i32 @_Z6P_Randv(), !dbg !3495
  %28 = icmp sgt i32 %27, 16384, !dbg !3496
  br i1 %28, label %29, label %34, !dbg !3494

29:                                               ; preds = %26, %19
  %30 = load ptr, ptr %6, align 8, !dbg !3497
  %31 = getelementptr inbounds nuw %struct.ai_local, ptr %30, i32 0, i32 5, !dbg !3498
  %32 = load i32, ptr %31, align 4, !dbg !3499
  %33 = add nsw i32 %32, 1, !dbg !3499
  store i32 %33, ptr %31, align 4, !dbg !3499
  br label %34, !dbg !3497

34:                                               ; preds = %29, %26
  br label %35, !dbg !3500

35:                                               ; preds = %34, %13
  %36 = load i32, ptr %8, align 4, !dbg !3501
  %37 = icmp ne i32 %36, 0, !dbg !3503
  br i1 %37, label %44, label %38, !dbg !3504

38:                                               ; preds = %35
  %39 = load ptr, ptr %7, align 8, !dbg !3505
  %40 = getelementptr inbounds nuw %struct.robot_info, ptr %39, i32 0, i32 8, !dbg !3506
  %41 = load i8, ptr %40, align 1, !dbg !3506
  %42 = sext i8 %41 to i32, !dbg !3505
  %43 = icmp eq i32 %42, -1, !dbg !3507
  br i1 %43, label %44, label %68, !dbg !3508

44:                                               ; preds = %38, %35
  %45 = load ptr, ptr %6, align 8, !dbg !3509
  %46 = getelementptr inbounds nuw %struct.ai_local, ptr %45, i32 0, i32 5, !dbg !3510
  %47 = load i32, ptr %46, align 4, !dbg !3510
  %48 = load ptr, ptr %7, align 8, !dbg !3511
  %49 = getelementptr inbounds nuw %struct.robot_info, ptr %48, i32 0, i32 28, !dbg !3512
  %50 = load i32, ptr @Difficulty_level, align 4, !dbg !3513
  %51 = sext i32 %50 to i64, !dbg !3511
  %52 = getelementptr inbounds [5 x i8], ptr %49, i64 0, i64 %51, !dbg !3511
  %53 = load i8, ptr %52, align 1, !dbg !3511
  %54 = sext i8 %53 to i32, !dbg !3511
  %55 = icmp slt i32 %47, %54, !dbg !3514
  br i1 %55, label %56, label %68, !dbg !3508

56:                                               ; preds = %44
  store i32 8192, ptr %9, align 4, !dbg !3515
  %57 = load ptr, ptr %7, align 8, !dbg !3517
  %58 = getelementptr inbounds nuw %struct.robot_info, ptr %57, i32 0, i32 23, !dbg !3518
  %59 = load i32, ptr @Difficulty_level, align 4, !dbg !3519
  %60 = sext i32 %59 to i64, !dbg !3517
  %61 = getelementptr inbounds [5 x i32], ptr %58, i64 0, i64 %60, !dbg !3517
  %62 = load i32, ptr %61, align 4, !dbg !3517
  %63 = sdiv i32 %62, 2, !dbg !3520
  store i32 %63, ptr %10, align 4, !dbg !3517
  %64 = call noundef nonnull align 4 dereferenceable(4) ptr @_ZNSt3__13minB8ne200100IiEERKT_S3_S3_(ptr noundef nonnull align 4 dereferenceable(4) %9, ptr noundef nonnull align 4 dereferenceable(4) %10), !dbg !3521
  %65 = load i32, ptr %64, align 4, !dbg !3521
  %66 = load ptr, ptr %6, align 8, !dbg !3522
  %67 = getelementptr inbounds nuw %struct.ai_local, ptr %66, i32 0, i32 8, !dbg !3523
  store i32 %65, ptr %67, align 4, !dbg !3524
  br label %111, !dbg !3525

68:                                               ; preds = %44, %38
  %69 = load ptr, ptr %7, align 8, !dbg !3526
  %70 = getelementptr inbounds nuw %struct.robot_info, ptr %69, i32 0, i32 8, !dbg !3529
  %71 = load i8, ptr %70, align 1, !dbg !3529
  %72 = sext i8 %71 to i32, !dbg !3526
  %73 = icmp eq i32 %72, -1, !dbg !3530
  br i1 %73, label %77, label %74, !dbg !3531

74:                                               ; preds = %68
  %75 = load i32, ptr %8, align 4, !dbg !3532
  %76 = icmp ne i32 %75, 0, !dbg !3533
  br i1 %76, label %77, label %101, !dbg !3531

77:                                               ; preds = %74, %68
  %78 = load ptr, ptr %7, align 8, !dbg !3534
  %79 = getelementptr inbounds nuw %struct.robot_info, ptr %78, i32 0, i32 23, !dbg !3536
  %80 = load i32, ptr @Difficulty_level, align 4, !dbg !3537
  %81 = sext i32 %80 to i64, !dbg !3534
  %82 = getelementptr inbounds [5 x i32], ptr %79, i64 0, i64 %81, !dbg !3534
  %83 = load i32, ptr %82, align 4, !dbg !3534
  %84 = load ptr, ptr %6, align 8, !dbg !3538
  %85 = getelementptr inbounds nuw %struct.ai_local, ptr %84, i32 0, i32 8, !dbg !3539
  store i32 %83, ptr %85, align 4, !dbg !3540
  %86 = load ptr, ptr %6, align 8, !dbg !3541
  %87 = getelementptr inbounds nuw %struct.ai_local, ptr %86, i32 0, i32 5, !dbg !3543
  %88 = load i32, ptr %87, align 4, !dbg !3543
  %89 = load ptr, ptr %7, align 8, !dbg !3544
  %90 = getelementptr inbounds nuw %struct.robot_info, ptr %89, i32 0, i32 28, !dbg !3545
  %91 = load i32, ptr @Difficulty_level, align 4, !dbg !3546
  %92 = sext i32 %91 to i64, !dbg !3544
  %93 = getelementptr inbounds [5 x i8], ptr %90, i64 0, i64 %92, !dbg !3544
  %94 = load i8, ptr %93, align 1, !dbg !3544
  %95 = sext i8 %94 to i32, !dbg !3544
  %96 = icmp sge i32 %88, %95, !dbg !3547
  br i1 %96, label %97, label %100, !dbg !3547

97:                                               ; preds = %77
  %98 = load ptr, ptr %6, align 8, !dbg !3548
  %99 = getelementptr inbounds nuw %struct.ai_local, ptr %98, i32 0, i32 5, !dbg !3549
  store i32 0, ptr %99, align 4, !dbg !3550
  br label %100, !dbg !3548

100:                                              ; preds = %97, %77
  br label %110, !dbg !3551

101:                                              ; preds = %74
  %102 = load ptr, ptr %7, align 8, !dbg !3552
  %103 = getelementptr inbounds nuw %struct.robot_info, ptr %102, i32 0, i32 24, !dbg !3553
  %104 = load i32, ptr @Difficulty_level, align 4, !dbg !3554
  %105 = sext i32 %104 to i64, !dbg !3552
  %106 = getelementptr inbounds [5 x i32], ptr %103, i64 0, i64 %105, !dbg !3552
  %107 = load i32, ptr %106, align 4, !dbg !3552
  %108 = load ptr, ptr %6, align 8, !dbg !3555
  %109 = getelementptr inbounds nuw %struct.ai_local, ptr %108, i32 0, i32 9, !dbg !3556
  store i32 %107, ptr %109, align 4, !dbg !3557
  br label %110

110:                                              ; preds = %101, %100
  br label %111

111:                                              ; preds = %110, %56
  ret void, !dbg !3558
}

declare noundef i32 @_Z6P_Randv() #2

; Function Attrs: mustprogress noinline ssp uwtable(sync)
define linkonce_odr hidden noundef nonnull align 4 dereferenceable(4) ptr @_ZNSt3__13minB8ne200100IiEERKT_S3_S3_(ptr noundef nonnull align 4 dereferenceable(4) %0, ptr noundef nonnull align 4 dereferenceable(4) %1) #1 !dbg !3559 {
  %3 = alloca ptr, align 8
  %4 = alloca ptr, align 8
  %5 = alloca %"struct.std::__1::__less", align 1
  store ptr %0, ptr %3, align 8
    #dbg_declare(ptr %3, !3566, !DIExpression(), !3567)
  store ptr %1, ptr %4, align 8
    #dbg_declare(ptr %4, !3568, !DIExpression(), !3569)
  %6 = load ptr, ptr %3, align 8, !dbg !3570
  %7 = load ptr, ptr %4, align 8, !dbg !3571
  %8 = call noundef nonnull align 4 dereferenceable(4) ptr @_ZNSt3__13minB8ne200100IiNS_6__lessIvvEEEERKT_S5_S5_T0_(ptr noundef nonnull align 4 dereferenceable(4) %6, ptr noundef nonnull align 4 dereferenceable(4) %7), !dbg !3572
  ret ptr %8, !dbg !3573
}

; Function Attrs: mustprogress noinline ssp uwtable(sync)
define void @_Z22do_ai_robot_hit_attackP6objectS0_P10vms_vector(ptr noundef %0, ptr noundef %1, ptr noundef %2) #1 !dbg !3574 {
  %4 = alloca ptr, align 8
  %5 = alloca ptr, align 8
  %6 = alloca ptr, align 8
  %7 = alloca ptr, align 8
  %8 = alloca ptr, align 8
  store ptr %0, ptr %4, align 8
    #dbg_declare(ptr %4, !3577, !DIExpression(), !3578)
  store ptr %1, ptr %5, align 8
    #dbg_declare(ptr %5, !3579, !DIExpression(), !3580)
  store ptr %2, ptr %6, align 8
    #dbg_declare(ptr %6, !3581, !DIExpression(), !3582)
    #dbg_declare(ptr %7, !3583, !DIExpression(), !3584)
  %9 = load ptr, ptr %4, align 8, !dbg !3585
  %10 = ptrtoint ptr %9 to i64, !dbg !3586
  %11 = sub i64 %10, ptrtoint (ptr @Objects to i64), !dbg !3586
  %12 = sdiv exact i64 %11, 268, !dbg !3586
  %13 = getelementptr inbounds [350 x %struct.ai_local], ptr @Ai_local_info, i64 0, i64 %12, !dbg !3587
  store ptr %13, ptr %7, align 8, !dbg !3584
    #dbg_declare(ptr %8, !3588, !DIExpression(), !3589)
  %14 = load ptr, ptr %4, align 8, !dbg !3590
  %15 = getelementptr inbounds nuw %struct.object, ptr %14, i32 0, i32 2, !dbg !3591
  %16 = load i8, ptr %15, align 1, !dbg !3591
  %17 = zext i8 %16 to i64, !dbg !3592
  %18 = getelementptr inbounds nuw [0 x %struct.robot_info], ptr @Robot_info, i64 0, i64 %17, !dbg !3592
  store ptr %18, ptr %8, align 8, !dbg !3589
  %19 = load i32, ptr @Robot_firing_enabled, align 4, !dbg !3593
  %20 = icmp ne i32 %19, 0, !dbg !3593
  br i1 %20, label %22, label %21, !dbg !3595

21:                                               ; preds = %3
  br label %119, !dbg !3596

22:                                               ; preds = %3
  %23 = load i32, ptr @Player_num, align 4, !dbg !3597
  %24 = sext i32 %23 to i64, !dbg !3599
  %25 = getelementptr inbounds [12 x %struct.player], ptr @Players, i64 0, i64 %24, !dbg !3599
  %26 = getelementptr inbounds nuw %struct.player, ptr %25, i32 0, i32 4, !dbg !3600
  %27 = load i32, ptr %26, align 4, !dbg !3600
  %28 = sext i32 %27 to i64, !dbg !3601
  %29 = getelementptr inbounds [0 x %struct.object], ptr @Objects, i64 0, i64 %28, !dbg !3601
  %30 = getelementptr inbounds nuw %struct.object, ptr %29, i32 0, i32 1, !dbg !3602
  %31 = load i8, ptr %30, align 4, !dbg !3602
  %32 = zext i8 %31 to i32, !dbg !3601
  %33 = icmp eq i32 %32, 12, !dbg !3603
  br i1 %33, label %34, label %35, !dbg !3603

34:                                               ; preds = %22
  br label %119, !dbg !3604

35:                                               ; preds = %22
  %36 = load ptr, ptr %8, align 8, !dbg !3605
  %37 = getelementptr inbounds nuw %struct.robot_info, ptr %36, i32 0, i32 31, !dbg !3607
  %38 = load i8, ptr %37, align 1, !dbg !3607
  %39 = sext i8 %38 to i32, !dbg !3605
  %40 = icmp eq i32 %39, 1, !dbg !3608
  br i1 %40, label %41, label %119, !dbg !3608

41:                                               ; preds = %35
  %42 = load ptr, ptr %7, align 8, !dbg !3609
  %43 = getelementptr inbounds nuw %struct.ai_local, ptr %42, i32 0, i32 8, !dbg !3612
  %44 = load i32, ptr %43, align 4, !dbg !3612
  %45 = icmp sle i32 %44, 0, !dbg !3613
  br i1 %45, label %46, label %118, !dbg !3613

46:                                               ; preds = %41
  %47 = load i32, ptr @Player_num, align 4, !dbg !3614
  %48 = sext i32 %47 to i64, !dbg !3617
  %49 = getelementptr inbounds [12 x %struct.player], ptr @Players, i64 0, i64 %48, !dbg !3617
  %50 = getelementptr inbounds nuw %struct.player, ptr %49, i32 0, i32 7, !dbg !3618
  %51 = load i32, ptr %50, align 4, !dbg !3618
  %52 = and i32 %51, 2048, !dbg !3619
  %53 = icmp ne i32 %52, 0, !dbg !3620
  br i1 %53, label %110, label %54, !dbg !3621

54:                                               ; preds = %46
  %55 = load ptr, ptr @ConsoleObject, align 8, !dbg !3622
  %56 = getelementptr inbounds nuw %struct.object, ptr %55, i32 0, i32 11, !dbg !3624
  %57 = load ptr, ptr %4, align 8, !dbg !3625
  %58 = getelementptr inbounds nuw %struct.object, ptr %57, i32 0, i32 11, !dbg !3626
  %59 = call noundef i32 @_Z17vm_vec_dist_quickP10vms_vectorS0_(ptr noundef %56, ptr noundef %58), !dbg !3627
  %60 = load ptr, ptr %4, align 8, !dbg !3628
  %61 = getelementptr inbounds nuw %struct.object, ptr %60, i32 0, i32 13, !dbg !3629
  %62 = load i32, ptr %61, align 4, !dbg !3629
  %63 = load ptr, ptr @ConsoleObject, align 8, !dbg !3630
  %64 = getelementptr inbounds nuw %struct.object, ptr %63, i32 0, i32 13, !dbg !3631
  %65 = load i32, ptr %64, align 4, !dbg !3631
  %66 = add nsw i32 %62, %65, !dbg !3632
  %67 = add nsw i32 %66, 131072, !dbg !3633
  %68 = icmp slt i32 %59, %67, !dbg !3634
  br i1 %68, label %69, label %109, !dbg !3634

69:                                               ; preds = %54
  %70 = load ptr, ptr %5, align 8, !dbg !3635
  %71 = load ptr, ptr %4, align 8, !dbg !3637
  %72 = load ptr, ptr %6, align 8, !dbg !3638
  call void @_Z30collide_player_and_nasty_robotP6objectS0_P10vms_vector(ptr noundef %70, ptr noundef %71, ptr noundef %72), !dbg !3639
  %73 = load ptr, ptr %8, align 8, !dbg !3640
  %74 = getelementptr inbounds nuw %struct.robot_info, ptr %73, i32 0, i32 17, !dbg !3642
  %75 = load i8, ptr %74, align 1, !dbg !3642
  %76 = icmp ne i8 %75, 0, !dbg !3640
  br i1 %76, label %77, label %108, !dbg !3643

77:                                               ; preds = %69
  %78 = load i32, ptr @Player_num, align 4, !dbg !3644
  %79 = sext i32 %78 to i64, !dbg !3645
  %80 = getelementptr inbounds [12 x %struct.player], ptr @Players, i64 0, i64 %79, !dbg !3645
  %81 = getelementptr inbounds nuw %struct.player, ptr %80, i32 0, i32 8, !dbg !3646
  %82 = load i32, ptr %81, align 4, !dbg !3646
  %83 = icmp ne i32 %82, 0, !dbg !3645
  br i1 %83, label %84, label %108, !dbg !3643

84:                                               ; preds = %77
  %85 = load ptr, ptr %8, align 8, !dbg !3647
  %86 = getelementptr inbounds nuw %struct.robot_info, ptr %85, i32 0, i32 17, !dbg !3649
  %87 = load i8, ptr %86, align 1, !dbg !3649
  %88 = sext i8 %87 to i32, !dbg !3647
  %89 = mul nsw i32 %88, 65536, !dbg !3650
  %90 = load i32, ptr @Player_num, align 4, !dbg !3651
  %91 = sext i32 %90 to i64, !dbg !3652
  %92 = getelementptr inbounds [12 x %struct.player], ptr @Players, i64 0, i64 %91, !dbg !3652
  %93 = getelementptr inbounds nuw %struct.player, ptr %92, i32 0, i32 8, !dbg !3653
  %94 = load i32, ptr %93, align 4, !dbg !3654
  %95 = sub nsw i32 %94, %89, !dbg !3654
  store i32 %95, ptr %93, align 4, !dbg !3654
  %96 = load i32, ptr @Player_num, align 4, !dbg !3655
  %97 = sext i32 %96 to i64, !dbg !3657
  %98 = getelementptr inbounds [12 x %struct.player], ptr @Players, i64 0, i64 %97, !dbg !3657
  %99 = getelementptr inbounds nuw %struct.player, ptr %98, i32 0, i32 8, !dbg !3658
  %100 = load i32, ptr %99, align 4, !dbg !3658
  %101 = icmp slt i32 %100, 0, !dbg !3659
  br i1 %101, label %102, label %107, !dbg !3659

102:                                              ; preds = %84
  %103 = load i32, ptr @Player_num, align 4, !dbg !3660
  %104 = sext i32 %103 to i64, !dbg !3661
  %105 = getelementptr inbounds [12 x %struct.player], ptr @Players, i64 0, i64 %104, !dbg !3661
  %106 = getelementptr inbounds nuw %struct.player, ptr %105, i32 0, i32 8, !dbg !3662
  store i32 0, ptr %106, align 4, !dbg !3663
  br label %107, !dbg !3661

107:                                              ; preds = %102, %84
  br label %108, !dbg !3664

108:                                              ; preds = %107, %77, %69
  br label %109, !dbg !3665

109:                                              ; preds = %108, %54
  br label %110, !dbg !3666

110:                                              ; preds = %109, %46
  %111 = load ptr, ptr %4, align 8, !dbg !3667
  %112 = getelementptr inbounds nuw %struct.object, ptr %111, i32 0, i32 22, !dbg !3668
  %113 = getelementptr inbounds nuw %struct.ai_static, ptr %112, i32 0, i32 1, !dbg !3669
  %114 = getelementptr inbounds [11 x i8], ptr %113, i64 0, i64 2, !dbg !3667
  store i8 6, ptr %114, align 1, !dbg !3670
  %115 = load ptr, ptr %4, align 8, !dbg !3671
  %116 = load ptr, ptr %7, align 8, !dbg !3672
  %117 = load ptr, ptr %8, align 8, !dbg !3673
  call void @_Z18set_next_fire_timeP6objectP8ai_localP10robot_infoi(ptr noundef %115, ptr noundef %116, ptr noundef %117, i32 noundef 1), !dbg !3674
  br label %118, !dbg !3675

118:                                              ; preds = %110, %41
  br label %119, !dbg !3676

119:                                              ; preds = %21, %34, %118, %35
  ret void, !dbg !3677
}

declare noundef i32 @_Z17vm_vec_dist_quickP10vms_vectorS0_(ptr noundef, ptr noundef) #2

declare void @_Z30collide_player_and_nasty_robotP6objectS0_P10vms_vector(ptr noundef, ptr noundef, ptr noundef) #2

; Function Attrs: mustprogress noinline ssp uwtable(sync)
define noundef i32 @_Z22compute_lead_componentiiii(i32 noundef %0, i32 noundef %1, i32 noundef %2, i32 noundef %3) #1 !dbg !3678 {
  %5 = alloca i32, align 4
  %6 = alloca i32, align 4
  %7 = alloca i32, align 4
  %8 = alloca i32, align 4
  store i32 %0, ptr %5, align 4
    #dbg_declare(ptr %5, !3681, !DIExpression(), !3682)
  store i32 %1, ptr %6, align 4
    #dbg_declare(ptr %6, !3683, !DIExpression(), !3684)
  store i32 %2, ptr %7, align 4
    #dbg_declare(ptr %7, !3685, !DIExpression(), !3686)
  store i32 %3, ptr %8, align 4
    #dbg_declare(ptr %8, !3687, !DIExpression(), !3688)
  %9 = load i32, ptr %5, align 4, !dbg !3689
  %10 = load i32, ptr %6, align 4, !dbg !3690
  %11 = sub nsw i32 %9, %10, !dbg !3691
  %12 = load i32, ptr %8, align 4, !dbg !3692
  %13 = call noundef i32 @_Z6fixdivii(i32 noundef %11, i32 noundef %12), !dbg !3693
  %14 = load i32, ptr %7, align 4, !dbg !3694
  %15 = add nsw i32 %13, %14, !dbg !3695
  ret i32 %15, !dbg !3696
}

; Function Attrs: mustprogress noinline ssp uwtable(sync)
define noundef i32 @_Z11lead_playerP6objectP10vms_vectorS2_iS2_(ptr noundef %0, ptr noundef %1, ptr noundef %2, i32 noundef %3, ptr noundef %4) #1 !dbg !3697 {
  %6 = alloca i32, align 4
  %7 = alloca ptr, align 8
  %8 = alloca ptr, align 8
  %9 = alloca ptr, align 8
  %10 = alloca i32, align 4
  %11 = alloca ptr, align 8
  %12 = alloca i32, align 4
  %13 = alloca i32, align 4
  %14 = alloca i32, align 4
  %15 = alloca i32, align 4
  %16 = alloca i32, align 4
  %17 = alloca %struct.vms_vector, align 4
  %18 = alloca %struct.vms_vector, align 4
  %19 = alloca i32, align 4
  %20 = alloca ptr, align 8
  %21 = alloca ptr, align 8
  store ptr %0, ptr %7, align 8
    #dbg_declare(ptr %7, !3700, !DIExpression(), !3701)
  store ptr %1, ptr %8, align 8
    #dbg_declare(ptr %8, !3702, !DIExpression(), !3703)
  store ptr %2, ptr %9, align 8
    #dbg_declare(ptr %9, !3704, !DIExpression(), !3705)
  store i32 %3, ptr %10, align 4
    #dbg_declare(ptr %10, !3706, !DIExpression(), !3707)
  store ptr %4, ptr %11, align 8
    #dbg_declare(ptr %11, !3708, !DIExpression(), !3709)
    #dbg_declare(ptr %12, !3710, !DIExpression(), !3711)
    #dbg_declare(ptr %13, !3712, !DIExpression(), !3713)
    #dbg_declare(ptr %14, !3714, !DIExpression(), !3715)
    #dbg_declare(ptr %15, !3716, !DIExpression(), !3717)
    #dbg_declare(ptr %16, !3718, !DIExpression(), !3719)
    #dbg_declare(ptr %17, !3720, !DIExpression(), !3721)
    #dbg_declare(ptr %18, !3722, !DIExpression(), !3723)
    #dbg_declare(ptr %19, !3724, !DIExpression(), !3725)
    #dbg_declare(ptr %20, !3726, !DIExpression(), !3777)
    #dbg_declare(ptr %21, !3778, !DIExpression(), !3779)
  %22 = load i32, ptr @Player_num, align 4, !dbg !3780
  %23 = sext i32 %22 to i64, !dbg !3782
  %24 = getelementptr inbounds [12 x %struct.player], ptr @Players, i64 0, i64 %23, !dbg !3782
  %25 = getelementptr inbounds nuw %struct.player, ptr %24, i32 0, i32 7, !dbg !3783
  %26 = load i32, ptr %25, align 4, !dbg !3783
  %27 = and i32 %26, 2048, !dbg !3784
  %28 = icmp ne i32 %27, 0, !dbg !3782
  br i1 %28, label %29, label %30, !dbg !3782

29:                                               ; preds = %5
  store i32 0, ptr %6, align 4, !dbg !3785
  br label %184, !dbg !3785

30:                                               ; preds = %5
  %31 = load ptr, ptr @ConsoleObject, align 8, !dbg !3786
  %32 = getelementptr inbounds nuw %struct.object, ptr %31, i32 0, i32 21, !dbg !3787
  %33 = getelementptr inbounds nuw %struct.physics_info, ptr %32, i32 0, i32 0, !dbg !3788
  call void @llvm.memcpy.p0.p0.i64(ptr align 4 %17, ptr align 4 %33, i64 12, i1 false), !dbg !3789
  %34 = call noundef i32 @_Z22vm_vec_normalize_quickP10vms_vector(ptr noundef %17), !dbg !3790
  store i32 %34, ptr %13, align 4, !dbg !3791
  %35 = load i32, ptr %13, align 4, !dbg !3792
  %36 = icmp slt i32 %35, 262144, !dbg !3794
  br i1 %36, label %37, label %38, !dbg !3794

37:                                               ; preds = %30
  store i32 0, ptr %6, align 4, !dbg !3795
  br label %184, !dbg !3795

38:                                               ; preds = %30
  %39 = load ptr, ptr %9, align 8, !dbg !3796
  %40 = load ptr, ptr %8, align 8, !dbg !3797
  %41 = call noundef ptr @_Z10vm_vec_subP10vms_vectorS0_S0_(ptr noundef %18, ptr noundef %39, ptr noundef %40), !dbg !3798
  %42 = call noundef i32 @_Z22vm_vec_normalize_quickP10vms_vector(ptr noundef %18), !dbg !3799
  store i32 %42, ptr %14, align 4, !dbg !3800
  %43 = load i32, ptr %14, align 4, !dbg !3801
  %44 = icmp sgt i32 %43, 13107200, !dbg !3803
  br i1 %44, label %45, label %46, !dbg !3803

45:                                               ; preds = %38
  store i32 0, ptr %6, align 4, !dbg !3804
  br label %184, !dbg !3804

46:                                               ; preds = %38
  %47 = call noundef i32 @_Z14vm_vec_dotprodP10vms_vectorS0_(ptr noundef %18, ptr noundef %17), !dbg !3805
  store i32 %47, ptr %12, align 4, !dbg !3806
  %48 = load i32, ptr %12, align 4, !dbg !3807
  %49 = icmp slt i32 %48, -32768, !dbg !3809
  br i1 %49, label %53, label %50, !dbg !3810

50:                                               ; preds = %46
  %51 = load i32, ptr %12, align 4, !dbg !3811
  %52 = icmp sgt i32 %51, 32768, !dbg !3812
  br i1 %52, label %53, label %54, !dbg !3810

53:                                               ; preds = %50, %46
  store i32 0, ptr %6, align 4, !dbg !3813
  br label %184, !dbg !3813

54:                                               ; preds = %50
  %55 = load ptr, ptr %7, align 8, !dbg !3814
  %56 = getelementptr inbounds nuw %struct.object, ptr %55, i32 0, i32 2, !dbg !3815
  %57 = load i8, ptr %56, align 1, !dbg !3815
  %58 = zext i8 %57 to i64, !dbg !3816
  %59 = getelementptr inbounds nuw [0 x %struct.robot_info], ptr @Robot_info, i64 0, i64 %58, !dbg !3816
  store ptr %59, ptr %21, align 8, !dbg !3817
  %60 = load ptr, ptr %21, align 8, !dbg !3818
  %61 = getelementptr inbounds nuw %struct.robot_info, ptr %60, i32 0, i32 7, !dbg !3819
  %62 = load i8, ptr %61, align 4, !dbg !3819
  %63 = sext i8 %62 to i32, !dbg !3818
  store i32 %63, ptr %19, align 4, !dbg !3820
  %64 = load ptr, ptr %21, align 8, !dbg !3821
  %65 = getelementptr inbounds nuw %struct.robot_info, ptr %64, i32 0, i32 8, !dbg !3823
  %66 = load i8, ptr %65, align 1, !dbg !3823
  %67 = sext i8 %66 to i32, !dbg !3821
  %68 = icmp ne i32 %67, -1, !dbg !3824
  br i1 %68, label %69, label %78, !dbg !3824

69:                                               ; preds = %54
  %70 = load i32, ptr %10, align 4, !dbg !3825
  %71 = icmp eq i32 %70, 0, !dbg !3827
  br i1 %71, label %72, label %77, !dbg !3827

72:                                               ; preds = %69
  %73 = load ptr, ptr %21, align 8, !dbg !3828
  %74 = getelementptr inbounds nuw %struct.robot_info, ptr %73, i32 0, i32 8, !dbg !3829
  %75 = load i8, ptr %74, align 1, !dbg !3829
  %76 = sext i8 %75 to i32, !dbg !3828
  store i32 %76, ptr %19, align 4, !dbg !3830
  br label %77, !dbg !3831

77:                                               ; preds = %72, %69
  br label %78, !dbg !3832

78:                                               ; preds = %77, %54
  %79 = load i32, ptr %19, align 4, !dbg !3833
  %80 = sext i32 %79 to i64, !dbg !3834
  %81 = getelementptr inbounds [0 x %struct.weapon_info], ptr @Weapon_info, i64 0, i64 %80, !dbg !3834
  store ptr %81, ptr %20, align 8, !dbg !3835
  %82 = load ptr, ptr %20, align 8, !dbg !3836
  %83 = getelementptr inbounds nuw %struct.weapon_info, ptr %82, i32 0, i32 30, !dbg !3837
  %84 = load i32, ptr @Difficulty_level, align 4, !dbg !3838
  %85 = sext i32 %84 to i64, !dbg !3836
  %86 = getelementptr inbounds [5 x i32], ptr %83, i64 0, i64 %85, !dbg !3836
  %87 = load i32, ptr %86, align 4, !dbg !3836
  store i32 %87, ptr %15, align 4, !dbg !3839
  %88 = load i32, ptr %15, align 4, !dbg !3840
  %89 = icmp slt i32 %88, 65536, !dbg !3842
  br i1 %89, label %90, label %91, !dbg !3842

90:                                               ; preds = %78
  store i32 0, ptr %6, align 4, !dbg !3843
  br label %184, !dbg !3843

91:                                               ; preds = %78
  %92 = load ptr, ptr %20, align 8, !dbg !3844
  %93 = getelementptr inbounds nuw %struct.weapon_info, ptr %92, i32 0, i32 14, !dbg !3846
  %94 = load i8, ptr %93, align 1, !dbg !3846
  %95 = icmp ne i8 %94, 0, !dbg !3844
  br i1 %95, label %96, label %106, !dbg !3844

96:                                               ; preds = %91
  %97 = load i32, ptr @Difficulty_level, align 4, !dbg !3847
  %98 = icmp sle i32 %97, 1, !dbg !3849
  br i1 %98, label %99, label %100, !dbg !3849

99:                                               ; preds = %96
  store i32 0, ptr %6, align 4, !dbg !3850
  br label %184, !dbg !3850

100:                                              ; preds = %96
  %101 = load i32, ptr @Difficulty_level, align 4, !dbg !3851
  %102 = sub nsw i32 5, %101, !dbg !3852
  %103 = load i32, ptr %15, align 4, !dbg !3853
  %104 = mul nsw i32 %103, %102, !dbg !3853
  store i32 %104, ptr %15, align 4, !dbg !3853
  br label %105

105:                                              ; preds = %100
  br label %106, !dbg !3854

106:                                              ; preds = %105, %91
  %107 = load i32, ptr %14, align 4, !dbg !3855
  %108 = load i32, ptr %15, align 4, !dbg !3856
  %109 = call noundef i32 @_Z6fixdivii(i32 noundef %107, i32 noundef %108), !dbg !3857
  store i32 %109, ptr %16, align 4, !dbg !3858
  %110 = load ptr, ptr %9, align 8, !dbg !3859
  %111 = getelementptr inbounds nuw %struct.vms_vector, ptr %110, i32 0, i32 0, !dbg !3860
  %112 = load i32, ptr %111, align 4, !dbg !3860
  %113 = load ptr, ptr %8, align 8, !dbg !3861
  %114 = getelementptr inbounds nuw %struct.vms_vector, ptr %113, i32 0, i32 0, !dbg !3862
  %115 = load i32, ptr %114, align 4, !dbg !3862
  %116 = load ptr, ptr @ConsoleObject, align 8, !dbg !3863
  %117 = getelementptr inbounds nuw %struct.object, ptr %116, i32 0, i32 21, !dbg !3864
  %118 = getelementptr inbounds nuw %struct.physics_info, ptr %117, i32 0, i32 0, !dbg !3865
  %119 = getelementptr inbounds nuw %struct.vms_vector, ptr %118, i32 0, i32 0, !dbg !3866
  %120 = load i32, ptr %119, align 4, !dbg !3866
  %121 = load i32, ptr %16, align 4, !dbg !3867
  %122 = call noundef i32 @_Z22compute_lead_componentiiii(i32 noundef %112, i32 noundef %115, i32 noundef %120, i32 noundef %121), !dbg !3868
  %123 = load ptr, ptr %11, align 8, !dbg !3869
  %124 = getelementptr inbounds nuw %struct.vms_vector, ptr %123, i32 0, i32 0, !dbg !3870
  store i32 %122, ptr %124, align 4, !dbg !3871
  %125 = load ptr, ptr %9, align 8, !dbg !3872
  %126 = getelementptr inbounds nuw %struct.vms_vector, ptr %125, i32 0, i32 1, !dbg !3873
  %127 = load i32, ptr %126, align 4, !dbg !3873
  %128 = load ptr, ptr %8, align 8, !dbg !3874
  %129 = getelementptr inbounds nuw %struct.vms_vector, ptr %128, i32 0, i32 1, !dbg !3875
  %130 = load i32, ptr %129, align 4, !dbg !3875
  %131 = load ptr, ptr @ConsoleObject, align 8, !dbg !3876
  %132 = getelementptr inbounds nuw %struct.object, ptr %131, i32 0, i32 21, !dbg !3877
  %133 = getelementptr inbounds nuw %struct.physics_info, ptr %132, i32 0, i32 0, !dbg !3878
  %134 = getelementptr inbounds nuw %struct.vms_vector, ptr %133, i32 0, i32 1, !dbg !3879
  %135 = load i32, ptr %134, align 4, !dbg !3879
  %136 = load i32, ptr %16, align 4, !dbg !3880
  %137 = call noundef i32 @_Z22compute_lead_componentiiii(i32 noundef %127, i32 noundef %130, i32 noundef %135, i32 noundef %136), !dbg !3881
  %138 = load ptr, ptr %11, align 8, !dbg !3882
  %139 = getelementptr inbounds nuw %struct.vms_vector, ptr %138, i32 0, i32 1, !dbg !3883
  store i32 %137, ptr %139, align 4, !dbg !3884
  %140 = load ptr, ptr %9, align 8, !dbg !3885
  %141 = getelementptr inbounds nuw %struct.vms_vector, ptr %140, i32 0, i32 2, !dbg !3886
  %142 = load i32, ptr %141, align 4, !dbg !3886
  %143 = load ptr, ptr %8, align 8, !dbg !3887
  %144 = getelementptr inbounds nuw %struct.vms_vector, ptr %143, i32 0, i32 2, !dbg !3888
  %145 = load i32, ptr %144, align 4, !dbg !3888
  %146 = load ptr, ptr @ConsoleObject, align 8, !dbg !3889
  %147 = getelementptr inbounds nuw %struct.object, ptr %146, i32 0, i32 21, !dbg !3890
  %148 = getelementptr inbounds nuw %struct.physics_info, ptr %147, i32 0, i32 0, !dbg !3891
  %149 = getelementptr inbounds nuw %struct.vms_vector, ptr %148, i32 0, i32 2, !dbg !3892
  %150 = load i32, ptr %149, align 4, !dbg !3892
  %151 = load i32, ptr %16, align 4, !dbg !3893
  %152 = call noundef i32 @_Z22compute_lead_componentiiii(i32 noundef %142, i32 noundef %145, i32 noundef %150, i32 noundef %151), !dbg !3894
  %153 = load ptr, ptr %11, align 8, !dbg !3895
  %154 = getelementptr inbounds nuw %struct.vms_vector, ptr %153, i32 0, i32 2, !dbg !3896
  store i32 %152, ptr %154, align 4, !dbg !3897
  %155 = load ptr, ptr %11, align 8, !dbg !3898
  %156 = call noundef i32 @_Z22vm_vec_normalize_quickP10vms_vector(ptr noundef %155), !dbg !3899
  %157 = load ptr, ptr %11, align 8, !dbg !3900
  %158 = load ptr, ptr %7, align 8, !dbg !3900
  %159 = getelementptr inbounds nuw %struct.object, ptr %158, i32 0, i32 12, !dbg !3900
  %160 = getelementptr inbounds nuw %struct.vms_matrix, ptr %159, i32 0, i32 2, !dbg !3900
  %161 = call noundef i32 @_Z14vm_vec_dotprodP10vms_vectorS0_(ptr noundef %157, ptr noundef %160), !dbg !3900
  %162 = icmp slt i32 %161, 98304, !dbg !3900
  %163 = zext i1 %162 to i32, !dbg !3900
  call void @_Z7_AssertiPKcS0_i(i32 noundef %163, ptr noundef @.str.7, ptr noundef @.str.8, i32 noundef 1306), !dbg !3900
  %164 = load ptr, ptr %11, align 8, !dbg !3901
  %165 = load ptr, ptr %7, align 8, !dbg !3901
  %166 = getelementptr inbounds nuw %struct.object, ptr %165, i32 0, i32 12, !dbg !3901
  %167 = getelementptr inbounds nuw %struct.vms_matrix, ptr %166, i32 0, i32 2, !dbg !3901
  %168 = call noundef i32 @_Z14vm_vec_dotprodP10vms_vectorS0_(ptr noundef %164, ptr noundef %167), !dbg !3901
  %169 = icmp slt i32 %168, 32768, !dbg !3903
  br i1 %169, label %170, label %183, !dbg !3903

170:                                              ; preds = %106
  %171 = load ptr, ptr %11, align 8, !dbg !3904
  %172 = call noundef ptr @_Z11vm_vec_add2P10vms_vectorS0_(ptr noundef %171, ptr noundef %18), !dbg !3906
  %173 = load ptr, ptr %11, align 8, !dbg !3907
  %174 = call noundef ptr @_Z12vm_vec_scaleP10vms_vectori(ptr noundef %173, i32 noundef 32768), !dbg !3908
  %175 = load ptr, ptr %11, align 8, !dbg !3909
  %176 = load ptr, ptr %7, align 8, !dbg !3909
  %177 = getelementptr inbounds nuw %struct.object, ptr %176, i32 0, i32 12, !dbg !3909
  %178 = getelementptr inbounds nuw %struct.vms_matrix, ptr %177, i32 0, i32 2, !dbg !3909
  %179 = call noundef i32 @_Z14vm_vec_dotprodP10vms_vectorS0_(ptr noundef %175, ptr noundef %178), !dbg !3909
  %180 = icmp slt i32 %179, 32768, !dbg !3911
  br i1 %180, label %181, label %182, !dbg !3911

181:                                              ; preds = %170
  store i32 0, ptr %6, align 4, !dbg !3912
  br label %184, !dbg !3912

182:                                              ; preds = %170
  br label %183, !dbg !3914

183:                                              ; preds = %182, %106
  store i32 1, ptr %6, align 4, !dbg !3915
  br label %184, !dbg !3915

184:                                              ; preds = %183, %181, %99, %90, %53, %45, %37, %29
  %185 = load i32, ptr %6, align 4, !dbg !3916
  ret i32 %185, !dbg !3916
}

declare noundef ptr @_Z10vm_vec_subP10vms_vectorS0_S0_(ptr noundef, ptr noundef, ptr noundef) #2

declare void @_Z7_AssertiPKcS0_i(i32 noundef, ptr noundef, ptr noundef, i32 noundef) #2

; Function Attrs: mustprogress noinline ssp uwtable(sync)
define void @_Z23ai_fire_laser_at_playerP6objectP10vms_vectoriS2_(ptr noundef %0, ptr noundef %1, i32 noundef %2, ptr noundef %3) #1 !dbg !3917 {
  %5 = alloca ptr, align 8
  %6 = alloca ptr, align 8
  %7 = alloca i32, align 4
  %8 = alloca ptr, align 8
  %9 = alloca i32, align 4
  %10 = alloca ptr, align 8
  %11 = alloca ptr, align 8
  %12 = alloca %struct.vms_vector, align 4
  %13 = alloca %struct.vms_vector, align 4
  %14 = alloca i32, align 4
  %15 = alloca i32, align 4
  %16 = alloca i32, align 4
  %17 = alloca i32, align 4
  %18 = alloca i32, align 4
  %19 = alloca i32, align 4
  %20 = alloca i32, align 4
  %21 = alloca %struct.fvi_query, align 8
  %22 = alloca %struct.fvi_info, align 4
  %23 = alloca i32, align 4
  %24 = alloca i32, align 4
  store ptr %0, ptr %5, align 8
    #dbg_declare(ptr %5, !3920, !DIExpression(), !3921)
  store ptr %1, ptr %6, align 8
    #dbg_declare(ptr %6, !3922, !DIExpression(), !3923)
  store i32 %2, ptr %7, align 4
    #dbg_declare(ptr %7, !3924, !DIExpression(), !3925)
  store ptr %3, ptr %8, align 8
    #dbg_declare(ptr %8, !3926, !DIExpression(), !3927)
    #dbg_declare(ptr %9, !3928, !DIExpression(), !3929)
  %25 = load ptr, ptr %5, align 8, !dbg !3930
  %26 = ptrtoint ptr %25 to i64, !dbg !3931
  %27 = sub i64 %26, ptrtoint (ptr @Objects to i64), !dbg !3931
  %28 = sdiv exact i64 %27, 268, !dbg !3931
  %29 = trunc i64 %28 to i32, !dbg !3930
  store i32 %29, ptr %9, align 4, !dbg !3929
    #dbg_declare(ptr %10, !3932, !DIExpression(), !3933)
  %30 = load i32, ptr %9, align 4, !dbg !3934
  %31 = sext i32 %30 to i64, !dbg !3935
  %32 = getelementptr inbounds [350 x %struct.ai_local], ptr @Ai_local_info, i64 0, i64 %31, !dbg !3935
  store ptr %32, ptr %10, align 8, !dbg !3933
    #dbg_declare(ptr %11, !3936, !DIExpression(), !3937)
  %33 = load ptr, ptr %5, align 8, !dbg !3938
  %34 = getelementptr inbounds nuw %struct.object, ptr %33, i32 0, i32 2, !dbg !3939
  %35 = load i8, ptr %34, align 1, !dbg !3939
  %36 = zext i8 %35 to i64, !dbg !3940
  %37 = getelementptr inbounds nuw [0 x %struct.robot_info], ptr @Robot_info, i64 0, i64 %36, !dbg !3940
  store ptr %37, ptr %11, align 8, !dbg !3937
    #dbg_declare(ptr %12, !3941, !DIExpression(), !3942)
    #dbg_declare(ptr %13, !3943, !DIExpression(), !3944)
    #dbg_declare(ptr %14, !3945, !DIExpression(), !3946)
    #dbg_declare(ptr %15, !3947, !DIExpression(), !3948)
    #dbg_declare(ptr %16, !3949, !DIExpression(), !3950)
    #dbg_declare(ptr %17, !3951, !DIExpression(), !3952)
  %38 = load ptr, ptr %11, align 8, !dbg !3953
  %39 = getelementptr inbounds nuw %struct.robot_info, ptr %38, i32 0, i32 31, !dbg !3953
  %40 = load i8, ptr %39, align 1, !dbg !3953
  %41 = sext i8 %40 to i32, !dbg !3953
  %42 = icmp eq i32 %41, 0, !dbg !3953
  %43 = zext i1 %42 to i32, !dbg !3953
  call void @_Z7_AssertiPKcS0_i(i32 noundef %43, ptr noundef @.str.9, ptr noundef @.str.8, i32 noundef 1335), !dbg !3953
  %44 = load ptr, ptr %5, align 8, !dbg !3954
  %45 = getelementptr inbounds nuw %struct.object, ptr %44, i32 0, i32 22, !dbg !3956
  %46 = getelementptr inbounds nuw %struct.ai_static, ptr %45, i32 0, i32 1, !dbg !3957
  %47 = getelementptr inbounds [11 x i8], ptr %46, i64 0, i64 4, !dbg !3954
  %48 = load i8, ptr %47, align 1, !dbg !3954
  %49 = sext i8 %48 to i32, !dbg !3954
  %50 = and i32 %49, 4, !dbg !3958
  %51 = icmp ne i32 %50, 0, !dbg !3954
  br i1 %51, label %52, label %53, !dbg !3954

52:                                               ; preds = %4
  br label %364, !dbg !3959

53:                                               ; preds = %4
  %54 = load i32, ptr @Robot_firing_enabled, align 4, !dbg !3960
  %55 = icmp ne i32 %54, 0, !dbg !3960
  br i1 %55, label %57, label %56, !dbg !3962

56:                                               ; preds = %53
  br label %364, !dbg !3963

57:                                               ; preds = %53
  %58 = load ptr, ptr %5, align 8, !dbg !3964
  %59 = getelementptr inbounds nuw %struct.object, ptr %58, i32 0, i32 5, !dbg !3966
  %60 = load i8, ptr %59, align 2, !dbg !3966
  %61 = zext i8 %60 to i32, !dbg !3964
  %62 = icmp eq i32 %61, 11, !dbg !3967
  br i1 %62, label %63, label %64, !dbg !3967

63:                                               ; preds = %57
  br label %364, !dbg !3968

64:                                               ; preds = %57
  %65 = load i32, ptr @Player_exploded, align 4, !dbg !3969
  %66 = icmp ne i32 %65, 0, !dbg !3969
  br i1 %66, label %67, label %68, !dbg !3969

67:                                               ; preds = %64
  br label %364, !dbg !3971

68:                                               ; preds = %64
  %69 = load ptr, ptr %5, align 8, !dbg !3972
  %70 = getelementptr inbounds nuw %struct.object, ptr %69, i32 0, i32 22, !dbg !3974
  %71 = getelementptr inbounds nuw %struct.ai_static, ptr %70, i32 0, i32 9, !dbg !3975
  %72 = load i32, ptr %71, align 4, !dbg !3975
  %73 = icmp ne i32 %72, 0, !dbg !3972
  br i1 %73, label %74, label %75, !dbg !3972

74:                                               ; preds = %68
  br label %364, !dbg !3976

75:                                               ; preds = %68
  %76 = load i32, ptr @Boss_dying_start_time, align 4, !dbg !3977
  %77 = load ptr, ptr %5, align 8, !dbg !3979
  %78 = getelementptr inbounds nuw %struct.object, ptr %77, i32 0, i32 2, !dbg !3980
  %79 = load i8, ptr %78, align 1, !dbg !3980
  %80 = zext i8 %79 to i64, !dbg !3981
  %81 = getelementptr inbounds nuw [0 x %struct.robot_info], ptr @Robot_info, i64 0, i64 %80, !dbg !3981
  %82 = getelementptr inbounds nuw %struct.robot_info, ptr %81, i32 0, i32 36, !dbg !3982
  %83 = load i8, ptr %82, align 4, !dbg !3982
  %84 = sext i8 %83 to i32, !dbg !3981
  %85 = and i32 %76, %84, !dbg !3983
  %86 = icmp ne i32 %85, 0, !dbg !3977
  br i1 %86, label %87, label %88, !dbg !3977

87:                                               ; preds = %75
  br label %364, !dbg !3984

88:                                               ; preds = %75
  %89 = load i32, ptr @Player_num, align 4, !dbg !3985
  %90 = sext i32 %89 to i64, !dbg !3987
  %91 = getelementptr inbounds [12 x %struct.player], ptr @Players, i64 0, i64 %90, !dbg !3987
  %92 = getelementptr inbounds nuw %struct.player, ptr %91, i32 0, i32 7, !dbg !3988
  %93 = load i32, ptr %92, align 4, !dbg !3988
  %94 = and i32 %93, 2048, !dbg !3989
  %95 = icmp ne i32 %94, 0, !dbg !3987
  br i1 %95, label %96, label %122, !dbg !3987

96:                                               ; preds = %88
    #dbg_declare(ptr %18, !3990, !DIExpression(), !3992)
  %97 = load i32, ptr %9, align 4, !dbg !3993
  %98 = srem i32 %97, 8, !dbg !3994
  %99 = sext i32 %98 to i64, !dbg !3995
  %100 = getelementptr inbounds [8 x %struct.ai_cloak_info], ptr @Ai_cloak_info, i64 0, i64 %99, !dbg !3995
  %101 = getelementptr inbounds nuw %struct.ai_cloak_info, ptr %100, i32 0, i32 0, !dbg !3996
  %102 = load i32, ptr %101, align 4, !dbg !3996
  store i32 %102, ptr %18, align 4, !dbg !3992
  %103 = load i32, ptr @GameTime, align 4, !dbg !3997
  %104 = load i32, ptr %18, align 4, !dbg !3999
  %105 = sub nsw i32 %103, %104, !dbg !4000
  %106 = icmp sgt i32 %105, 491520, !dbg !4001
  br i1 %106, label %107, label %121, !dbg !4001

107:                                              ; preds = %96
  %108 = call noundef i32 @_Z6P_Randv(), !dbg !4002
  %109 = load i32, ptr @GameTime, align 4, !dbg !4004
  %110 = load i32, ptr %18, align 4, !dbg !4005
  %111 = sub nsw i32 %109, %110, !dbg !4006
  %112 = call noundef i32 @_Z6fixdivii(i32 noundef %111, i32 noundef 1966080), !dbg !4007
  %113 = sdiv i32 %112, 2, !dbg !4008
  %114 = icmp sgt i32 %108, %113, !dbg !4009
  br i1 %114, label %115, label %120, !dbg !4009

115:                                              ; preds = %107
  %116 = load ptr, ptr %5, align 8, !dbg !4010
  %117 = load ptr, ptr %10, align 8, !dbg !4012
  %118 = load ptr, ptr %11, align 8, !dbg !4013
  %119 = load i32, ptr %7, align 4, !dbg !4014
  call void @_Z18set_next_fire_timeP6objectP8ai_localP10robot_infoi(ptr noundef %116, ptr noundef %117, ptr noundef %118, i32 noundef %119), !dbg !4015
  br label %364, !dbg !4016

120:                                              ; preds = %107
  br label %121, !dbg !4017

121:                                              ; preds = %120, %96
  br label %122, !dbg !4018

122:                                              ; preds = %121, %88
  %123 = load ptr, ptr %5, align 8, !dbg !4019
  %124 = getelementptr inbounds nuw %struct.object, ptr %123, i32 0, i32 22, !dbg !4021
  %125 = getelementptr inbounds nuw %struct.ai_static, ptr %124, i32 0, i32 1, !dbg !4022
  %126 = getelementptr inbounds [11 x i8], ptr %125, i64 0, i64 4, !dbg !4019
  %127 = load i8, ptr %126, align 1, !dbg !4019
  %128 = sext i8 %127 to i32, !dbg !4019
  %129 = and i32 %128, 1, !dbg !4023
  %130 = icmp ne i32 %129, 0, !dbg !4019
  br i1 %130, label %131, label %237, !dbg !4019

131:                                              ; preds = %122
    #dbg_declare(ptr %19, !4024, !DIExpression(), !4026)
    #dbg_declare(ptr %20, !4027, !DIExpression(), !4028)
  %132 = load ptr, ptr %6, align 8, !dbg !4029
  %133 = load ptr, ptr %5, align 8, !dbg !4030
  %134 = getelementptr inbounds nuw %struct.object, ptr %133, i32 0, i32 9, !dbg !4031
  %135 = load i16, ptr %134, align 2, !dbg !4031
  %136 = sext i16 %135 to i32, !dbg !4030
  %137 = call noundef i32 @_Z14find_point_segP10vms_vectori(ptr noundef %132, i32 noundef %136), !dbg !4032
  store i32 %137, ptr %20, align 4, !dbg !4028
  %138 = load i32, ptr %20, align 4, !dbg !4033
  %139 = sext i32 %138 to i64, !dbg !4034
  %140 = getelementptr inbounds [0 x %struct.segment], ptr @Segments, i64 0, i64 %139, !dbg !4034
  %141 = load ptr, ptr %5, align 8, !dbg !4035
  %142 = getelementptr inbounds nuw %struct.object, ptr %141, i32 0, i32 9, !dbg !4036
  %143 = load i16, ptr %142, align 2, !dbg !4036
  %144 = sext i16 %143 to i64, !dbg !4037
  %145 = getelementptr inbounds [0 x %struct.segment], ptr @Segments, i64 0, i64 %144, !dbg !4037
  %146 = call noundef i32 @_Z17find_connect_sideP7segmentS0_(ptr noundef %140, ptr noundef %145), !dbg !4038
  store i32 %146, ptr %19, align 4, !dbg !4039
  %147 = load i32, ptr %19, align 4, !dbg !4040
  %148 = icmp ne i32 %147, -1, !dbg !4042
  br i1 %148, label %149, label %210, !dbg !4042

149:                                              ; preds = %131
  %150 = load ptr, ptr %5, align 8, !dbg !4043
  %151 = getelementptr inbounds nuw %struct.object, ptr %150, i32 0, i32 9, !dbg !4043
  %152 = load i16, ptr %151, align 2, !dbg !4043
  %153 = sext i16 %152 to i64, !dbg !4043
  %154 = getelementptr inbounds [0 x %struct.segment], ptr @Segments, i64 0, i64 %153, !dbg !4043
  %155 = getelementptr inbounds nuw %struct.segment, ptr %154, i32 0, i32 1, !dbg !4043
  %156 = load i32, ptr %19, align 4, !dbg !4043
  %157 = sext i32 %156 to i64, !dbg !4043
  %158 = getelementptr inbounds [6 x i16], ptr %155, i64 0, i64 %157, !dbg !4043
  %159 = load i16, ptr %158, align 2, !dbg !4043
  %160 = sext i16 %159 to i32, !dbg !4043
  %161 = icmp eq i32 %160, -1, !dbg !4043
  br i1 %161, label %162, label %163, !dbg !4043

162:                                              ; preds = %149
  br label %204, !dbg !4043

163:                                              ; preds = %149
  %164 = load ptr, ptr %5, align 8, !dbg !4043
  %165 = getelementptr inbounds nuw %struct.object, ptr %164, i32 0, i32 9, !dbg !4043
  %166 = load i16, ptr %165, align 2, !dbg !4043
  %167 = sext i16 %166 to i64, !dbg !4043
  %168 = getelementptr inbounds [0 x %struct.segment], ptr @Segments, i64 0, i64 %167, !dbg !4043
  %169 = getelementptr inbounds nuw %struct.segment, ptr %168, i32 0, i32 1, !dbg !4043
  %170 = load i32, ptr %19, align 4, !dbg !4043
  %171 = sext i32 %170 to i64, !dbg !4043
  %172 = getelementptr inbounds [6 x i16], ptr %169, i64 0, i64 %171, !dbg !4043
  %173 = load i16, ptr %172, align 2, !dbg !4043
  %174 = sext i16 %173 to i32, !dbg !4043
  %175 = icmp eq i32 %174, -2, !dbg !4043
  br i1 %175, label %176, label %177, !dbg !4043

176:                                              ; preds = %163
  br label %202, !dbg !4043

177:                                              ; preds = %163
  %178 = load ptr, ptr %5, align 8, !dbg !4043
  %179 = getelementptr inbounds nuw %struct.object, ptr %178, i32 0, i32 9, !dbg !4043
  %180 = load i16, ptr %179, align 2, !dbg !4043
  %181 = sext i16 %180 to i64, !dbg !4043
  %182 = getelementptr inbounds [0 x %struct.segment], ptr @Segments, i64 0, i64 %181, !dbg !4043
  %183 = getelementptr inbounds nuw %struct.segment, ptr %182, i32 0, i32 0, !dbg !4043
  %184 = load i32, ptr %19, align 4, !dbg !4043
  %185 = sext i32 %184 to i64, !dbg !4043
  %186 = getelementptr inbounds [6 x %struct.side], ptr %183, i64 0, i64 %185, !dbg !4043
  %187 = getelementptr inbounds nuw %struct.side, ptr %186, i32 0, i32 2, !dbg !4043
  %188 = load i16, ptr %187, align 2, !dbg !4043
  %189 = sext i16 %188 to i32, !dbg !4043
  %190 = icmp eq i32 %189, -1, !dbg !4043
  br i1 %190, label %191, label %192, !dbg !4043

191:                                              ; preds = %177
  br label %200, !dbg !4043

192:                                              ; preds = %177
  %193 = load ptr, ptr %5, align 8, !dbg !4043
  %194 = getelementptr inbounds nuw %struct.object, ptr %193, i32 0, i32 9, !dbg !4043
  %195 = load i16, ptr %194, align 2, !dbg !4043
  %196 = sext i16 %195 to i64, !dbg !4043
  %197 = getelementptr inbounds [0 x %struct.segment], ptr @Segments, i64 0, i64 %196, !dbg !4043
  %198 = load i32, ptr %19, align 4, !dbg !4043
  %199 = call noundef i32 @_Z15wall_is_doorwayP7segmenti(ptr noundef %197, i32 noundef %198), !dbg !4043
  br label %200, !dbg !4043

200:                                              ; preds = %192, %191
  %201 = phi i32 [ 5, %191 ], [ %199, %192 ], !dbg !4043
  br label %202, !dbg !4043

202:                                              ; preds = %200, %176
  %203 = phi i32 [ 8, %176 ], [ %201, %200 ], !dbg !4043
  br label %204, !dbg !4043

204:                                              ; preds = %202, %162
  %205 = phi i32 [ 2, %162 ], [ %203, %202 ], !dbg !4043
  %206 = and i32 %205, 1, !dbg !4046
  %207 = icmp ne i32 %206, 0, !dbg !4047
  br i1 %207, label %209, label %208, !dbg !4048

208:                                              ; preds = %204
  br label %364, !dbg !4049

209:                                              ; preds = %204
  br label %236, !dbg !4051

210:                                              ; preds = %131
    #dbg_declare(ptr %21, !4052, !DIExpression(), !4054)
    #dbg_declare(ptr %22, !4055, !DIExpression(), !4069)
    #dbg_declare(ptr %23, !4070, !DIExpression(), !4071)
  %211 = load ptr, ptr %5, align 8, !dbg !4072
  %212 = getelementptr inbounds nuw %struct.object, ptr %211, i32 0, i32 9, !dbg !4073
  %213 = load i16, ptr %212, align 2, !dbg !4073
  %214 = sext i16 %213 to i32, !dbg !4072
  %215 = getelementptr inbounds nuw %struct.fvi_query, ptr %21, i32 0, i32 2, !dbg !4074
  store i32 %214, ptr %215, align 8, !dbg !4075
  %216 = load ptr, ptr %5, align 8, !dbg !4076
  %217 = getelementptr inbounds nuw %struct.object, ptr %216, i32 0, i32 11, !dbg !4077
  %218 = getelementptr inbounds nuw %struct.fvi_query, ptr %21, i32 0, i32 0, !dbg !4078
  store ptr %217, ptr %218, align 8, !dbg !4079
  %219 = load ptr, ptr %6, align 8, !dbg !4080
  %220 = getelementptr inbounds nuw %struct.fvi_query, ptr %21, i32 0, i32 1, !dbg !4081
  store ptr %219, ptr %220, align 8, !dbg !4082
  %221 = getelementptr inbounds nuw %struct.fvi_query, ptr %21, i32 0, i32 3, !dbg !4083
  store i32 0, ptr %221, align 4, !dbg !4084
  %222 = load ptr, ptr %5, align 8, !dbg !4085
  %223 = ptrtoint ptr %222 to i64, !dbg !4086
  %224 = sub i64 %223, ptrtoint (ptr @Objects to i64), !dbg !4086
  %225 = sdiv exact i64 %224, 268, !dbg !4086
  %226 = trunc i64 %225 to i16, !dbg !4085
  %227 = getelementptr inbounds nuw %struct.fvi_query, ptr %21, i32 0, i32 4, !dbg !4087
  store i16 %226, ptr %227, align 8, !dbg !4088
  %228 = getelementptr inbounds nuw %struct.fvi_query, ptr %21, i32 0, i32 5, !dbg !4089
  store ptr null, ptr %228, align 8, !dbg !4090
  %229 = getelementptr inbounds nuw %struct.fvi_query, ptr %21, i32 0, i32 6, !dbg !4091
  store i32 2, ptr %229, align 8, !dbg !4092
  %230 = call noundef i32 @_Z24find_vector_intersectionP9fvi_queryP8fvi_info(ptr noundef %21, ptr noundef %22), !dbg !4093
  store i32 %230, ptr %23, align 4, !dbg !4094
  %231 = load i32, ptr %23, align 4, !dbg !4095
  %232 = icmp ne i32 %231, 0, !dbg !4097
  br i1 %232, label %233, label %235, !dbg !4097

233:                                              ; preds = %210
  call void @_Z4Int3v(), !dbg !4098
  %234 = load ptr, ptr %5, align 8, !dbg !4100
  call void @_Z27move_towards_segment_centerP6object(ptr noundef %234), !dbg !4101
  br label %364, !dbg !4102

235:                                              ; preds = %210
  br label %236

236:                                              ; preds = %235, %209
  br label %237, !dbg !4103

237:                                              ; preds = %236, %122
  %238 = load ptr, ptr %11, align 8, !dbg !4104
  %239 = getelementptr inbounds nuw %struct.robot_info, ptr %238, i32 0, i32 49, !dbg !4105
  %240 = load i8, ptr %239, align 1, !dbg !4105
  %241 = zext i8 %240 to i32, !dbg !4104
  %242 = shl i32 %241, 8, !dbg !4106
  %243 = mul nsw i32 7, %242, !dbg !4107
  %244 = sub nsw i32 524288, %243, !dbg !4108
  store i32 %244, ptr %15, align 4, !dbg !4109
  %245 = load i32, ptr @Seismic_tremor_magnitude, align 4, !dbg !4110
  %246 = icmp ne i32 %245, 0, !dbg !4110
  br i1 %246, label %247, label %258, !dbg !4110

247:                                              ; preds = %237
    #dbg_declare(ptr %24, !4112, !DIExpression(), !4114)
  %248 = load i32, ptr @Seismic_tremor_magnitude, align 4, !dbg !4115
  %249 = call i32 @llvm.abs.i32(i32 %248, i1 true), !dbg !4116
  %250 = sub nsw i32 65536, %249, !dbg !4117
  store i32 %250, ptr %24, align 4, !dbg !4118
  %251 = load i32, ptr %24, align 4, !dbg !4119
  %252 = icmp slt i32 %251, 32768, !dbg !4121
  br i1 %252, label %253, label %254, !dbg !4121

253:                                              ; preds = %247
  store i32 32768, ptr %24, align 4, !dbg !4122
  br label %254, !dbg !4123

254:                                              ; preds = %253, %247
  %255 = load i32, ptr %15, align 4, !dbg !4124
  %256 = load i32, ptr %24, align 4, !dbg !4125
  %257 = call noundef i32 @_Z6fixmulii(i32 noundef %255, i32 noundef %256), !dbg !4126
  store i32 %257, ptr %15, align 4, !dbg !4127
  br label %258, !dbg !4128

258:                                              ; preds = %254, %237
  %259 = call noundef i32 @_Z6P_Randv(), !dbg !4129
  %260 = icmp slt i32 %259, 16384, !dbg !4131
  br i1 %260, label %261, label %270, !dbg !4131

261:                                              ; preds = %258
  %262 = load ptr, ptr %5, align 8, !dbg !4132
  %263 = load ptr, ptr %6, align 8, !dbg !4135
  %264 = load ptr, ptr %8, align 8, !dbg !4136
  %265 = load i32, ptr %7, align 4, !dbg !4137
  %266 = call noundef i32 @_Z11lead_playerP6objectP10vms_vectorS2_iS2_(ptr noundef %262, ptr noundef %263, ptr noundef %264, i32 noundef %265, ptr noundef %12), !dbg !4138
  %267 = icmp ne i32 %266, 0, !dbg !4138
  br i1 %267, label %268, label %269, !dbg !4138

268:                                              ; preds = %261
  br label %331, !dbg !4139

269:                                              ; preds = %261
  br label %270, !dbg !4140

270:                                              ; preds = %269, %258
  store i32 0, ptr %16, align 4, !dbg !4141
  store i32 0, ptr %17, align 4, !dbg !4142
  br label %271, !dbg !4143

271:                                              ; preds = %279, %270
  %272 = load i32, ptr %17, align 4, !dbg !4144
  %273 = icmp slt i32 %272, 4, !dbg !4145
  br i1 %273, label %274, label %277, !dbg !4146

274:                                              ; preds = %271
  %275 = load i32, ptr %16, align 4, !dbg !4147
  %276 = icmp slt i32 %275, 16384, !dbg !4148
  br label %277

277:                                              ; preds = %274, %271
  %278 = phi i1 [ false, %271 ], [ %276, %274 ], !dbg !4149
  br i1 %278, label %279, label %330, !dbg !4143

279:                                              ; preds = %277
  %280 = load ptr, ptr %8, align 8, !dbg !4150
  %281 = getelementptr inbounds nuw %struct.vms_vector, ptr %280, i32 0, i32 0, !dbg !4152
  %282 = load i32, ptr %281, align 4, !dbg !4152
  %283 = call noundef i32 @_Z6P_Randv(), !dbg !4153
  %284 = sub nsw i32 %283, 16384, !dbg !4154
  %285 = load i32, ptr @Difficulty_level, align 4, !dbg !4155
  %286 = sub nsw i32 5, %285, !dbg !4156
  %287 = sub nsw i32 %286, 1, !dbg !4157
  %288 = mul nsw i32 %284, %287, !dbg !4158
  %289 = mul nsw i32 %288, 4, !dbg !4159
  %290 = load i32, ptr %15, align 4, !dbg !4160
  %291 = call noundef i32 @_Z6fixmulii(i32 noundef %289, i32 noundef %290), !dbg !4161
  %292 = add nsw i32 %282, %291, !dbg !4162
  %293 = getelementptr inbounds nuw %struct.vms_vector, ptr %13, i32 0, i32 0, !dbg !4163
  store i32 %292, ptr %293, align 4, !dbg !4164
  %294 = load ptr, ptr %8, align 8, !dbg !4165
  %295 = getelementptr inbounds nuw %struct.vms_vector, ptr %294, i32 0, i32 1, !dbg !4166
  %296 = load i32, ptr %295, align 4, !dbg !4166
  %297 = call noundef i32 @_Z6P_Randv(), !dbg !4167
  %298 = sub nsw i32 %297, 16384, !dbg !4168
  %299 = load i32, ptr @Difficulty_level, align 4, !dbg !4169
  %300 = sub nsw i32 5, %299, !dbg !4170
  %301 = sub nsw i32 %300, 1, !dbg !4171
  %302 = mul nsw i32 %298, %301, !dbg !4172
  %303 = mul nsw i32 %302, 4, !dbg !4173
  %304 = load i32, ptr %15, align 4, !dbg !4174
  %305 = call noundef i32 @_Z6fixmulii(i32 noundef %303, i32 noundef %304), !dbg !4175
  %306 = add nsw i32 %296, %305, !dbg !4176
  %307 = getelementptr inbounds nuw %struct.vms_vector, ptr %13, i32 0, i32 1, !dbg !4177
  store i32 %306, ptr %307, align 4, !dbg !4178
  %308 = load ptr, ptr %8, align 8, !dbg !4179
  %309 = getelementptr inbounds nuw %struct.vms_vector, ptr %308, i32 0, i32 2, !dbg !4180
  %310 = load i32, ptr %309, align 4, !dbg !4180
  %311 = call noundef i32 @_Z6P_Randv(), !dbg !4181
  %312 = sub nsw i32 %311, 16384, !dbg !4182
  %313 = load i32, ptr @Difficulty_level, align 4, !dbg !4183
  %314 = sub nsw i32 5, %313, !dbg !4184
  %315 = sub nsw i32 %314, 1, !dbg !4185
  %316 = mul nsw i32 %312, %315, !dbg !4186
  %317 = mul nsw i32 %316, 4, !dbg !4187
  %318 = load i32, ptr %15, align 4, !dbg !4188
  %319 = call noundef i32 @_Z6fixmulii(i32 noundef %317, i32 noundef %318), !dbg !4189
  %320 = add nsw i32 %310, %319, !dbg !4190
  %321 = getelementptr inbounds nuw %struct.vms_vector, ptr %13, i32 0, i32 2, !dbg !4191
  store i32 %320, ptr %321, align 4, !dbg !4192
  %322 = load ptr, ptr %6, align 8, !dbg !4193
  %323 = call noundef i32 @_Z27vm_vec_normalized_dir_quickP10vms_vectorS0_S0_(ptr noundef %12, ptr noundef %13, ptr noundef %322), !dbg !4194
  %324 = load ptr, ptr %5, align 8, !dbg !4195
  %325 = getelementptr inbounds nuw %struct.object, ptr %324, i32 0, i32 12, !dbg !4195
  %326 = getelementptr inbounds nuw %struct.vms_matrix, ptr %325, i32 0, i32 2, !dbg !4195
  %327 = call noundef i32 @_Z14vm_vec_dotprodP10vms_vectorS0_(ptr noundef %326, ptr noundef %12), !dbg !4195
  store i32 %327, ptr %16, align 4, !dbg !4196
  %328 = load i32, ptr %17, align 4, !dbg !4197
  %329 = add nsw i32 %328, 1, !dbg !4197
  store i32 %329, ptr %17, align 4, !dbg !4197
  br label %271, !dbg !4143, !llvm.loop !4198

330:                                              ; preds = %277
  br label %331, !dbg !4143

331:                                              ; preds = %330, %268
    #dbg_label(!4200, !4201)
  %332 = load ptr, ptr %11, align 8, !dbg !4202
  %333 = getelementptr inbounds nuw %struct.robot_info, ptr %332, i32 0, i32 7, !dbg !4203
  %334 = load i8, ptr %333, align 4, !dbg !4203
  %335 = sext i8 %334 to i32, !dbg !4202
  store i32 %335, ptr %14, align 4, !dbg !4204
  %336 = load ptr, ptr %11, align 8, !dbg !4205
  %337 = getelementptr inbounds nuw %struct.robot_info, ptr %336, i32 0, i32 8, !dbg !4207
  %338 = load i8, ptr %337, align 1, !dbg !4207
  %339 = sext i8 %338 to i32, !dbg !4205
  %340 = icmp ne i32 %339, -1, !dbg !4208
  br i1 %340, label %341, label %350, !dbg !4208

341:                                              ; preds = %331
  %342 = load i32, ptr %7, align 4, !dbg !4209
  %343 = icmp eq i32 %342, 0, !dbg !4211
  br i1 %343, label %344, label %349, !dbg !4211

344:                                              ; preds = %341
  %345 = load ptr, ptr %11, align 8, !dbg !4212
  %346 = getelementptr inbounds nuw %struct.robot_info, ptr %345, i32 0, i32 8, !dbg !4213
  %347 = load i8, ptr %346, align 1, !dbg !4213
  %348 = sext i8 %347 to i32, !dbg !4212
  store i32 %348, ptr %14, align 4, !dbg !4214
  br label %349, !dbg !4215

349:                                              ; preds = %344, %341
  br label %350, !dbg !4216

350:                                              ; preds = %349, %331
  %351 = load ptr, ptr %6, align 8, !dbg !4217
  %352 = load ptr, ptr %5, align 8, !dbg !4218
  %353 = ptrtoint ptr %352 to i64, !dbg !4219
  %354 = sub i64 %353, ptrtoint (ptr @Objects to i64), !dbg !4219
  %355 = sdiv exact i64 %354, 268, !dbg !4219
  %356 = trunc i64 %355 to i32, !dbg !4218
  %357 = load i32, ptr %14, align 4, !dbg !4220
  %358 = call noundef i32 @_Z21Laser_create_new_easyP10vms_vectorS0_iii(ptr noundef %12, ptr noundef %351, i32 noundef %356, i32 noundef %357, i32 noundef 1), !dbg !4221
  %359 = load ptr, ptr %5, align 8, !dbg !4222
  call void @_Z22create_awareness_eventP6objecti(ptr noundef %359, i32 noundef 1), !dbg !4223
  %360 = load ptr, ptr %5, align 8, !dbg !4224
  %361 = load ptr, ptr %10, align 8, !dbg !4225
  %362 = load ptr, ptr %11, align 8, !dbg !4226
  %363 = load i32, ptr %7, align 4, !dbg !4227
  call void @_Z18set_next_fire_timeP6objectP8ai_localP10robot_infoi(ptr noundef %360, ptr noundef %361, ptr noundef %362, i32 noundef %363), !dbg !4228
  br label %364, !dbg !4229

364:                                              ; preds = %350, %233, %208, %115, %87, %74, %67, %63, %56, %52
  ret void, !dbg !4229
}

declare noundef i32 @_Z17find_connect_sideP7segmentS0_(ptr noundef, ptr noundef) #2

declare noundef i32 @_Z27vm_vec_normalized_dir_quickP10vms_vectorS0_S0_(ptr noundef, ptr noundef, ptr noundef) #2

declare noundef i32 @_Z21Laser_create_new_easyP10vms_vectorS0_iii(ptr noundef, ptr noundef, i32 noundef, i32 noundef, i32 noundef) #2

declare void @_Z22create_awareness_eventP6objecti(ptr noundef, i32 noundef) #2

; Function Attrs: mustprogress noinline ssp uwtable(sync)
define void @_Z19move_towards_vectorP6objectP10vms_vectori(ptr noundef %0, ptr noundef %1, i32 noundef %2) #1 !dbg !4230 {
  %4 = alloca ptr, align 8
  %5 = alloca ptr, align 8
  %6 = alloca i32, align 4
  %7 = alloca ptr, align 8
  %8 = alloca i32, align 4
  %9 = alloca i32, align 4
  %10 = alloca i32, align 4
  %11 = alloca ptr, align 8
  %12 = alloca %struct.vms_vector, align 4
  store ptr %0, ptr %4, align 8
    #dbg_declare(ptr %4, !4233, !DIExpression(), !4234)
  store ptr %1, ptr %5, align 8
    #dbg_declare(ptr %5, !4235, !DIExpression(), !4236)
  store i32 %2, ptr %6, align 4
    #dbg_declare(ptr %6, !4237, !DIExpression(), !4238)
    #dbg_declare(ptr %7, !4239, !DIExpression(), !4241)
  %13 = load ptr, ptr %4, align 8, !dbg !4242
  %14 = getelementptr inbounds nuw %struct.object, ptr %13, i32 0, i32 21, !dbg !4243
  store ptr %14, ptr %7, align 8, !dbg !4241
    #dbg_declare(ptr %8, !4244, !DIExpression(), !4245)
    #dbg_declare(ptr %9, !4246, !DIExpression(), !4247)
    #dbg_declare(ptr %10, !4248, !DIExpression(), !4249)
    #dbg_declare(ptr %11, !4250, !DIExpression(), !4251)
  %15 = load ptr, ptr %4, align 8, !dbg !4252
  %16 = getelementptr inbounds nuw %struct.object, ptr %15, i32 0, i32 2, !dbg !4253
  %17 = load i8, ptr %16, align 1, !dbg !4253
  %18 = zext i8 %17 to i64, !dbg !4254
  %19 = getelementptr inbounds nuw [0 x %struct.robot_info], ptr @Robot_info, i64 0, i64 %18, !dbg !4254
  store ptr %19, ptr %11, align 8, !dbg !4251
    #dbg_declare(ptr %12, !4255, !DIExpression(), !4256)
  %20 = load ptr, ptr %7, align 8, !dbg !4257
  %21 = getelementptr inbounds nuw %struct.physics_info, ptr %20, i32 0, i32 0, !dbg !4258
  call void @llvm.memcpy.p0.p0.i64(ptr align 4 %12, ptr align 4 %21, i64 12, i1 false), !dbg !4259
  %22 = call noundef i32 @_Z22vm_vec_normalize_quickP10vms_vector(ptr noundef %12), !dbg !4260
  %23 = load ptr, ptr %4, align 8, !dbg !4261
  %24 = getelementptr inbounds nuw %struct.object, ptr %23, i32 0, i32 12, !dbg !4261
  %25 = getelementptr inbounds nuw %struct.vms_matrix, ptr %24, i32 0, i32 2, !dbg !4261
  %26 = call noundef i32 @_Z14vm_vec_dotprodP10vms_vectorS0_(ptr noundef %12, ptr noundef %25), !dbg !4261
  store i32 %26, ptr %9, align 4, !dbg !4262
  %27 = load ptr, ptr %11, align 8, !dbg !4263
  %28 = getelementptr inbounds nuw %struct.robot_info, ptr %27, i32 0, i32 40, !dbg !4265
  %29 = load i8, ptr %28, align 4, !dbg !4265
  %30 = icmp ne i8 %29, 0, !dbg !4263
  br i1 %30, label %31, label %35, !dbg !4263

31:                                               ; preds = %3
  %32 = load i32, ptr %9, align 4, !dbg !4266
  %33 = add nsw i32 65536, %32, !dbg !4267
  %34 = sdiv i32 %33, 2, !dbg !4268
  store i32 %34, ptr %9, align 4, !dbg !4269
  br label %35, !dbg !4270

35:                                               ; preds = %31, %3
  %36 = load i32, ptr %6, align 4, !dbg !4271
  %37 = icmp ne i32 %36, 0, !dbg !4271
  br i1 %37, label %38, label %87, !dbg !4273

38:                                               ; preds = %35
  %39 = load i32, ptr %9, align 4, !dbg !4274
  %40 = icmp slt i32 %39, 49152, !dbg !4275
  br i1 %40, label %41, label %87, !dbg !4273

41:                                               ; preds = %38
  %42 = load ptr, ptr %7, align 8, !dbg !4276
  %43 = getelementptr inbounds nuw %struct.physics_info, ptr %42, i32 0, i32 0, !dbg !4278
  %44 = getelementptr inbounds nuw %struct.vms_vector, ptr %43, i32 0, i32 0, !dbg !4279
  %45 = load i32, ptr %44, align 4, !dbg !4279
  %46 = sdiv i32 %45, 2, !dbg !4280
  %47 = load ptr, ptr %5, align 8, !dbg !4281
  %48 = getelementptr inbounds nuw %struct.vms_vector, ptr %47, i32 0, i32 0, !dbg !4282
  %49 = load i32, ptr %48, align 4, !dbg !4282
  %50 = load i32, ptr @FrameTime, align 4, !dbg !4283
  %51 = mul nsw i32 %50, 32, !dbg !4284
  %52 = call noundef i32 @_Z6fixmulii(i32 noundef %49, i32 noundef %51), !dbg !4285
  %53 = add nsw i32 %46, %52, !dbg !4286
  %54 = load ptr, ptr %7, align 8, !dbg !4287
  %55 = getelementptr inbounds nuw %struct.physics_info, ptr %54, i32 0, i32 0, !dbg !4288
  %56 = getelementptr inbounds nuw %struct.vms_vector, ptr %55, i32 0, i32 0, !dbg !4289
  store i32 %53, ptr %56, align 4, !dbg !4290
  %57 = load ptr, ptr %7, align 8, !dbg !4291
  %58 = getelementptr inbounds nuw %struct.physics_info, ptr %57, i32 0, i32 0, !dbg !4292
  %59 = getelementptr inbounds nuw %struct.vms_vector, ptr %58, i32 0, i32 1, !dbg !4293
  %60 = load i32, ptr %59, align 4, !dbg !4293
  %61 = sdiv i32 %60, 2, !dbg !4294
  %62 = load ptr, ptr %5, align 8, !dbg !4295
  %63 = getelementptr inbounds nuw %struct.vms_vector, ptr %62, i32 0, i32 1, !dbg !4296
  %64 = load i32, ptr %63, align 4, !dbg !4296
  %65 = load i32, ptr @FrameTime, align 4, !dbg !4297
  %66 = mul nsw i32 %65, 32, !dbg !4298
  %67 = call noundef i32 @_Z6fixmulii(i32 noundef %64, i32 noundef %66), !dbg !4299
  %68 = add nsw i32 %61, %67, !dbg !4300
  %69 = load ptr, ptr %7, align 8, !dbg !4301
  %70 = getelementptr inbounds nuw %struct.physics_info, ptr %69, i32 0, i32 0, !dbg !4302
  %71 = getelementptr inbounds nuw %struct.vms_vector, ptr %70, i32 0, i32 1, !dbg !4303
  store i32 %68, ptr %71, align 4, !dbg !4304
  %72 = load ptr, ptr %7, align 8, !dbg !4305
  %73 = getelementptr inbounds nuw %struct.physics_info, ptr %72, i32 0, i32 0, !dbg !4306
  %74 = getelementptr inbounds nuw %struct.vms_vector, ptr %73, i32 0, i32 2, !dbg !4307
  %75 = load i32, ptr %74, align 4, !dbg !4307
  %76 = sdiv i32 %75, 2, !dbg !4308
  %77 = load ptr, ptr %5, align 8, !dbg !4309
  %78 = getelementptr inbounds nuw %struct.vms_vector, ptr %77, i32 0, i32 2, !dbg !4310
  %79 = load i32, ptr %78, align 4, !dbg !4310
  %80 = load i32, ptr @FrameTime, align 4, !dbg !4311
  %81 = mul nsw i32 %80, 32, !dbg !4312
  %82 = call noundef i32 @_Z6fixmulii(i32 noundef %79, i32 noundef %81), !dbg !4313
  %83 = add nsw i32 %76, %82, !dbg !4314
  %84 = load ptr, ptr %7, align 8, !dbg !4315
  %85 = getelementptr inbounds nuw %struct.physics_info, ptr %84, i32 0, i32 0, !dbg !4316
  %86 = getelementptr inbounds nuw %struct.vms_vector, ptr %85, i32 0, i32 2, !dbg !4317
  store i32 %83, ptr %86, align 4, !dbg !4318
  br label %133, !dbg !4319

87:                                               ; preds = %38, %35
  %88 = load ptr, ptr %5, align 8, !dbg !4320
  %89 = getelementptr inbounds nuw %struct.vms_vector, ptr %88, i32 0, i32 0, !dbg !4322
  %90 = load i32, ptr %89, align 4, !dbg !4322
  %91 = load i32, ptr @FrameTime, align 4, !dbg !4323
  %92 = mul nsw i32 %91, 64, !dbg !4324
  %93 = call noundef i32 @_Z6fixmulii(i32 noundef %90, i32 noundef %92), !dbg !4325
  %94 = load i32, ptr @Difficulty_level, align 4, !dbg !4326
  %95 = add nsw i32 %94, 5, !dbg !4327
  %96 = mul nsw i32 %93, %95, !dbg !4328
  %97 = sdiv i32 %96, 4, !dbg !4329
  %98 = load ptr, ptr %7, align 8, !dbg !4330
  %99 = getelementptr inbounds nuw %struct.physics_info, ptr %98, i32 0, i32 0, !dbg !4331
  %100 = getelementptr inbounds nuw %struct.vms_vector, ptr %99, i32 0, i32 0, !dbg !4332
  %101 = load i32, ptr %100, align 4, !dbg !4333
  %102 = add nsw i32 %101, %97, !dbg !4333
  store i32 %102, ptr %100, align 4, !dbg !4333
  %103 = load ptr, ptr %5, align 8, !dbg !4334
  %104 = getelementptr inbounds nuw %struct.vms_vector, ptr %103, i32 0, i32 1, !dbg !4335
  %105 = load i32, ptr %104, align 4, !dbg !4335
  %106 = load i32, ptr @FrameTime, align 4, !dbg !4336
  %107 = mul nsw i32 %106, 64, !dbg !4337
  %108 = call noundef i32 @_Z6fixmulii(i32 noundef %105, i32 noundef %107), !dbg !4338
  %109 = load i32, ptr @Difficulty_level, align 4, !dbg !4339
  %110 = add nsw i32 %109, 5, !dbg !4340
  %111 = mul nsw i32 %108, %110, !dbg !4341
  %112 = sdiv i32 %111, 4, !dbg !4342
  %113 = load ptr, ptr %7, align 8, !dbg !4343
  %114 = getelementptr inbounds nuw %struct.physics_info, ptr %113, i32 0, i32 0, !dbg !4344
  %115 = getelementptr inbounds nuw %struct.vms_vector, ptr %114, i32 0, i32 1, !dbg !4345
  %116 = load i32, ptr %115, align 4, !dbg !4346
  %117 = add nsw i32 %116, %112, !dbg !4346
  store i32 %117, ptr %115, align 4, !dbg !4346
  %118 = load ptr, ptr %5, align 8, !dbg !4347
  %119 = getelementptr inbounds nuw %struct.vms_vector, ptr %118, i32 0, i32 2, !dbg !4348
  %120 = load i32, ptr %119, align 4, !dbg !4348
  %121 = load i32, ptr @FrameTime, align 4, !dbg !4349
  %122 = mul nsw i32 %121, 64, !dbg !4350
  %123 = call noundef i32 @_Z6fixmulii(i32 noundef %120, i32 noundef %122), !dbg !4351
  %124 = load i32, ptr @Difficulty_level, align 4, !dbg !4352
  %125 = add nsw i32 %124, 5, !dbg !4353
  %126 = mul nsw i32 %123, %125, !dbg !4354
  %127 = sdiv i32 %126, 4, !dbg !4355
  %128 = load ptr, ptr %7, align 8, !dbg !4356
  %129 = getelementptr inbounds nuw %struct.physics_info, ptr %128, i32 0, i32 0, !dbg !4357
  %130 = getelementptr inbounds nuw %struct.vms_vector, ptr %129, i32 0, i32 2, !dbg !4358
  %131 = load i32, ptr %130, align 4, !dbg !4359
  %132 = add nsw i32 %131, %127, !dbg !4359
  store i32 %132, ptr %130, align 4, !dbg !4359
  br label %133

133:                                              ; preds = %87, %41
  %134 = load ptr, ptr %7, align 8, !dbg !4360
  %135 = getelementptr inbounds nuw %struct.physics_info, ptr %134, i32 0, i32 0, !dbg !4361
  %136 = call noundef i32 @_Z16vm_vec_mag_quickP10vms_vector(ptr noundef %135), !dbg !4362
  store i32 %136, ptr %8, align 4, !dbg !4363
  %137 = load ptr, ptr %11, align 8, !dbg !4364
  %138 = getelementptr inbounds nuw %struct.robot_info, ptr %137, i32 0, i32 26, !dbg !4365
  %139 = load i32, ptr @Difficulty_level, align 4, !dbg !4366
  %140 = sext i32 %139 to i64, !dbg !4364
  %141 = getelementptr inbounds [5 x i32], ptr %138, i64 0, i64 %140, !dbg !4364
  %142 = load i32, ptr %141, align 4, !dbg !4364
  store i32 %142, ptr %10, align 4, !dbg !4367
  %143 = load ptr, ptr %11, align 8, !dbg !4368
  %144 = getelementptr inbounds nuw %struct.robot_info, ptr %143, i32 0, i32 31, !dbg !4370
  %145 = load i8, ptr %144, align 1, !dbg !4370
  %146 = sext i8 %145 to i32, !dbg !4368
  %147 = icmp eq i32 %146, 1, !dbg !4371
  br i1 %147, label %158, label %148, !dbg !4372

148:                                              ; preds = %133
  %149 = load ptr, ptr %11, align 8, !dbg !4373
  %150 = getelementptr inbounds nuw %struct.robot_info, ptr %149, i32 0, i32 40, !dbg !4374
  %151 = load i8, ptr %150, align 4, !dbg !4374
  %152 = icmp ne i8 %151, 0, !dbg !4373
  br i1 %152, label %158, label %153, !dbg !4375

153:                                              ; preds = %148
  %154 = load ptr, ptr %11, align 8, !dbg !4376
  %155 = getelementptr inbounds nuw %struct.robot_info, ptr %154, i32 0, i32 14, !dbg !4377
  %156 = load i8, ptr %155, align 1, !dbg !4377
  %157 = icmp ne i8 %156, 0, !dbg !4376
  br i1 %157, label %158, label %161, !dbg !4375

158:                                              ; preds = %153, %148, %133
  %159 = load i32, ptr %10, align 4, !dbg !4378
  %160 = mul nsw i32 %159, 2, !dbg !4378
  store i32 %160, ptr %10, align 4, !dbg !4378
  br label %161, !dbg !4379

161:                                              ; preds = %158, %153
  %162 = load i32, ptr %8, align 4, !dbg !4380
  %163 = load i32, ptr %10, align 4, !dbg !4382
  %164 = icmp sgt i32 %162, %163, !dbg !4383
  br i1 %164, label %165, label %193, !dbg !4383

165:                                              ; preds = %161
  %166 = load ptr, ptr %7, align 8, !dbg !4384
  %167 = getelementptr inbounds nuw %struct.physics_info, ptr %166, i32 0, i32 0, !dbg !4386
  %168 = getelementptr inbounds nuw %struct.vms_vector, ptr %167, i32 0, i32 0, !dbg !4387
  %169 = load i32, ptr %168, align 4, !dbg !4387
  %170 = mul nsw i32 %169, 3, !dbg !4388
  %171 = sdiv i32 %170, 4, !dbg !4389
  %172 = load ptr, ptr %7, align 8, !dbg !4390
  %173 = getelementptr inbounds nuw %struct.physics_info, ptr %172, i32 0, i32 0, !dbg !4391
  %174 = getelementptr inbounds nuw %struct.vms_vector, ptr %173, i32 0, i32 0, !dbg !4392
  store i32 %171, ptr %174, align 4, !dbg !4393
  %175 = load ptr, ptr %7, align 8, !dbg !4394
  %176 = getelementptr inbounds nuw %struct.physics_info, ptr %175, i32 0, i32 0, !dbg !4395
  %177 = getelementptr inbounds nuw %struct.vms_vector, ptr %176, i32 0, i32 1, !dbg !4396
  %178 = load i32, ptr %177, align 4, !dbg !4396
  %179 = mul nsw i32 %178, 3, !dbg !4397
  %180 = sdiv i32 %179, 4, !dbg !4398
  %181 = load ptr, ptr %7, align 8, !dbg !4399
  %182 = getelementptr inbounds nuw %struct.physics_info, ptr %181, i32 0, i32 0, !dbg !4400
  %183 = getelementptr inbounds nuw %struct.vms_vector, ptr %182, i32 0, i32 1, !dbg !4401
  store i32 %180, ptr %183, align 4, !dbg !4402
  %184 = load ptr, ptr %7, align 8, !dbg !4403
  %185 = getelementptr inbounds nuw %struct.physics_info, ptr %184, i32 0, i32 0, !dbg !4404
  %186 = getelementptr inbounds nuw %struct.vms_vector, ptr %185, i32 0, i32 2, !dbg !4405
  %187 = load i32, ptr %186, align 4, !dbg !4405
  %188 = mul nsw i32 %187, 3, !dbg !4406
  %189 = sdiv i32 %188, 4, !dbg !4407
  %190 = load ptr, ptr %7, align 8, !dbg !4408
  %191 = getelementptr inbounds nuw %struct.physics_info, ptr %190, i32 0, i32 0, !dbg !4409
  %192 = getelementptr inbounds nuw %struct.vms_vector, ptr %191, i32 0, i32 2, !dbg !4410
  store i32 %189, ptr %192, align 4, !dbg !4411
  br label %193, !dbg !4412

193:                                              ; preds = %165, %161
  ret void, !dbg !4413
}

declare noundef i32 @_Z16vm_vec_mag_quickP10vms_vector(ptr noundef) #2

; Function Attrs: mustprogress noinline ssp uwtable(sync)
define void @_Z19move_towards_playerP6objectP10vms_vector(ptr noundef %0, ptr noundef %1) #1 !dbg !4414 {
  %3 = alloca ptr, align 8
  %4 = alloca ptr, align 8
  store ptr %0, ptr %3, align 8
    #dbg_declare(ptr %3, !4417, !DIExpression(), !4418)
  store ptr %1, ptr %4, align 8
    #dbg_declare(ptr %4, !4419, !DIExpression(), !4420)
  %5 = load ptr, ptr %3, align 8, !dbg !4421
  %6 = load ptr, ptr %4, align 8, !dbg !4422
  call void @_Z19move_towards_vectorP6objectP10vms_vectori(ptr noundef %5, ptr noundef %6, i32 noundef 1), !dbg !4423
  ret void, !dbg !4424
}

; Function Attrs: mustprogress noinline ssp uwtable(sync)
define void @_Z18move_around_playerP6objectP10vms_vectori(ptr noundef %0, ptr noundef %1, i32 noundef %2) #1 !dbg !4425 {
  %4 = alloca ptr, align 8
  %5 = alloca ptr, align 8
  %6 = alloca i32, align 4
  %7 = alloca ptr, align 8
  %8 = alloca i32, align 4
  %9 = alloca ptr, align 8
  %10 = alloca i32, align 4
  %11 = alloca i32, align 4
  %12 = alloca i32, align 4
  %13 = alloca i32, align 4
  %14 = alloca %struct.vms_vector, align 4
  %15 = alloca i32, align 4
  %16 = alloca i32, align 4
  %17 = alloca i32, align 4
  store ptr %0, ptr %4, align 8
    #dbg_declare(ptr %4, !4426, !DIExpression(), !4427)
  store ptr %1, ptr %5, align 8
    #dbg_declare(ptr %5, !4428, !DIExpression(), !4429)
  store i32 %2, ptr %6, align 4
    #dbg_declare(ptr %6, !4430, !DIExpression(), !4431)
    #dbg_declare(ptr %7, !4432, !DIExpression(), !4433)
  %18 = load ptr, ptr %4, align 8, !dbg !4434
  %19 = getelementptr inbounds nuw %struct.object, ptr %18, i32 0, i32 21, !dbg !4435
  store ptr %19, ptr %7, align 8, !dbg !4433
    #dbg_declare(ptr %8, !4436, !DIExpression(), !4437)
    #dbg_declare(ptr %9, !4438, !DIExpression(), !4439)
  %20 = load ptr, ptr %4, align 8, !dbg !4440
  %21 = getelementptr inbounds nuw %struct.object, ptr %20, i32 0, i32 2, !dbg !4441
  %22 = load i8, ptr %21, align 1, !dbg !4441
  %23 = zext i8 %22 to i64, !dbg !4442
  %24 = getelementptr inbounds nuw [0 x %struct.robot_info], ptr @Robot_info, i64 0, i64 %23, !dbg !4442
  store ptr %24, ptr %9, align 8, !dbg !4439
    #dbg_declare(ptr %10, !4443, !DIExpression(), !4444)
  %25 = load ptr, ptr %4, align 8, !dbg !4445
  %26 = ptrtoint ptr %25 to i64, !dbg !4446
  %27 = sub i64 %26, ptrtoint (ptr @Objects to i64), !dbg !4446
  %28 = sdiv exact i64 %27, 268, !dbg !4446
  %29 = trunc i64 %28 to i32, !dbg !4445
  store i32 %29, ptr %10, align 4, !dbg !4444
    #dbg_declare(ptr %11, !4447, !DIExpression(), !4448)
    #dbg_declare(ptr %12, !4449, !DIExpression(), !4450)
    #dbg_declare(ptr %13, !4451, !DIExpression(), !4452)
    #dbg_declare(ptr %14, !4453, !DIExpression(), !4454)
    #dbg_declare(ptr %15, !4455, !DIExpression(), !4456)
  store i32 0, ptr %15, align 4, !dbg !4456
  %30 = load i32, ptr %6, align 4, !dbg !4457
  %31 = icmp eq i32 %30, 0, !dbg !4459
  br i1 %31, label %32, label %33, !dbg !4459

32:                                               ; preds = %3
  br label %296, !dbg !4460

33:                                               ; preds = %3
  store i32 48, ptr %12, align 4, !dbg !4461
  %34 = load i32, ptr @FrameTime, align 4, !dbg !4462
  store i32 %34, ptr %13, align 4, !dbg !4463
  %35 = load i32, ptr %13, align 4, !dbg !4464
  %36 = icmp slt i32 %35, 2048, !dbg !4466
  br i1 %36, label %37, label %42, !dbg !4466

37:                                               ; preds = %33
  %38 = load i32, ptr %12, align 4, !dbg !4467
  %39 = mul nsw i32 %38, 8, !dbg !4467
  store i32 %39, ptr %12, align 4, !dbg !4467
  %40 = load i32, ptr %15, align 4, !dbg !4469
  %41 = add nsw i32 %40, 3, !dbg !4469
  store i32 %41, ptr %15, align 4, !dbg !4469
  br label %54, !dbg !4470

42:                                               ; preds = %33
  br label %43, !dbg !4471

43:                                               ; preds = %46, %42
  %44 = load i32, ptr %13, align 4, !dbg !4472
  %45 = icmp slt i32 %44, 16384, !dbg !4473
  br i1 %45, label %46, label %53, !dbg !4471

46:                                               ; preds = %43
  %47 = load i32, ptr %12, align 4, !dbg !4474
  %48 = mul nsw i32 %47, 2, !dbg !4474
  store i32 %48, ptr %12, align 4, !dbg !4474
  %49 = load i32, ptr %13, align 4, !dbg !4476
  %50 = mul nsw i32 %49, 2, !dbg !4476
  store i32 %50, ptr %13, align 4, !dbg !4476
  %51 = load i32, ptr %15, align 4, !dbg !4477
  %52 = add nsw i32 %51, 1, !dbg !4477
  store i32 %52, ptr %15, align 4, !dbg !4477
  br label %43, !dbg !4471, !llvm.loop !4478

53:                                               ; preds = %43
  br label %54

54:                                               ; preds = %53, %37
  %55 = load i32, ptr @FrameCount, align 4, !dbg !4480
  %56 = load i32, ptr %15, align 4, !dbg !4481
  %57 = add nsw i32 %56, 1, !dbg !4482
  %58 = load i32, ptr %10, align 4, !dbg !4483
  %59 = mul nsw i32 %58, 8, !dbg !4484
  %60 = load i32, ptr %10, align 4, !dbg !4485
  %61 = mul nsw i32 %60, 4, !dbg !4486
  %62 = add nsw i32 %59, %61, !dbg !4487
  %63 = load i32, ptr %10, align 4, !dbg !4488
  %64 = add nsw i32 %62, %63, !dbg !4489
  %65 = mul nsw i32 %57, %64, !dbg !4490
  %66 = add nsw i32 %55, %65, !dbg !4491
  %67 = load i32, ptr %12, align 4, !dbg !4492
  %68 = and i32 %66, %67, !dbg !4493
  store i32 %68, ptr %11, align 4, !dbg !4494
  %69 = load i32, ptr %15, align 4, !dbg !4495
  %70 = add nsw i32 4, %69, !dbg !4496
  %71 = load i32, ptr %11, align 4, !dbg !4497
  %72 = ashr i32 %71, %70, !dbg !4497
  store i32 %72, ptr %11, align 4, !dbg !4497
  %73 = load i32, ptr %11, align 4, !dbg !4498
  %74 = icmp sge i32 %73, 0, !dbg !4498
  br i1 %74, label %75, label %78, !dbg !4498

75:                                               ; preds = %54
  %76 = load i32, ptr %11, align 4, !dbg !4498
  %77 = icmp sle i32 %76, 3, !dbg !4498
  br label %78

78:                                               ; preds = %75, %54
  %79 = phi i1 [ false, %54 ], [ %77, %75 ], !dbg !4499
  %80 = zext i1 %79 to i32, !dbg !4498
  call void @_Z7_AssertiPKcS0_i(i32 noundef %80, ptr noundef @.str.10, ptr noundef @.str.8, i32 noundef 1623), !dbg !4498
  %81 = load i32, ptr %11, align 4, !dbg !4500
  switch i32 %81, label %174 [
    i32 0, label %82
    i32 1, label %105
    i32 2, label %128
    i32 3, label %151
  ], !dbg !4501

82:                                               ; preds = %78
  %83 = load ptr, ptr %5, align 8, !dbg !4502
  %84 = getelementptr inbounds nuw %struct.vms_vector, ptr %83, i32 0, i32 2, !dbg !4504
  %85 = load i32, ptr %84, align 4, !dbg !4504
  %86 = load i32, ptr @FrameTime, align 4, !dbg !4505
  %87 = mul nsw i32 %86, 32, !dbg !4506
  %88 = call noundef i32 @_Z6fixmulii(i32 noundef %85, i32 noundef %87), !dbg !4507
  %89 = getelementptr inbounds nuw %struct.vms_vector, ptr %14, i32 0, i32 0, !dbg !4508
  store i32 %88, ptr %89, align 4, !dbg !4509
  %90 = load ptr, ptr %5, align 8, !dbg !4510
  %91 = getelementptr inbounds nuw %struct.vms_vector, ptr %90, i32 0, i32 1, !dbg !4511
  %92 = load i32, ptr %91, align 4, !dbg !4511
  %93 = load i32, ptr @FrameTime, align 4, !dbg !4512
  %94 = mul nsw i32 %93, 32, !dbg !4513
  %95 = call noundef i32 @_Z6fixmulii(i32 noundef %92, i32 noundef %94), !dbg !4514
  %96 = getelementptr inbounds nuw %struct.vms_vector, ptr %14, i32 0, i32 1, !dbg !4515
  store i32 %95, ptr %96, align 4, !dbg !4516
  %97 = load ptr, ptr %5, align 8, !dbg !4517
  %98 = getelementptr inbounds nuw %struct.vms_vector, ptr %97, i32 0, i32 0, !dbg !4518
  %99 = load i32, ptr %98, align 4, !dbg !4518
  %100 = sub nsw i32 0, %99, !dbg !4519
  %101 = load i32, ptr @FrameTime, align 4, !dbg !4520
  %102 = mul nsw i32 %101, 32, !dbg !4521
  %103 = call noundef i32 @_Z6fixmulii(i32 noundef %100, i32 noundef %102), !dbg !4522
  %104 = getelementptr inbounds nuw %struct.vms_vector, ptr %14, i32 0, i32 2, !dbg !4523
  store i32 %103, ptr %104, align 4, !dbg !4524
  br label %175, !dbg !4525

105:                                              ; preds = %78
  %106 = load ptr, ptr %5, align 8, !dbg !4526
  %107 = getelementptr inbounds nuw %struct.vms_vector, ptr %106, i32 0, i32 2, !dbg !4527
  %108 = load i32, ptr %107, align 4, !dbg !4527
  %109 = sub nsw i32 0, %108, !dbg !4528
  %110 = load i32, ptr @FrameTime, align 4, !dbg !4529
  %111 = mul nsw i32 %110, 32, !dbg !4530
  %112 = call noundef i32 @_Z6fixmulii(i32 noundef %109, i32 noundef %111), !dbg !4531
  %113 = getelementptr inbounds nuw %struct.vms_vector, ptr %14, i32 0, i32 0, !dbg !4532
  store i32 %112, ptr %113, align 4, !dbg !4533
  %114 = load ptr, ptr %5, align 8, !dbg !4534
  %115 = getelementptr inbounds nuw %struct.vms_vector, ptr %114, i32 0, i32 1, !dbg !4535
  %116 = load i32, ptr %115, align 4, !dbg !4535
  %117 = load i32, ptr @FrameTime, align 4, !dbg !4536
  %118 = mul nsw i32 %117, 32, !dbg !4537
  %119 = call noundef i32 @_Z6fixmulii(i32 noundef %116, i32 noundef %118), !dbg !4538
  %120 = getelementptr inbounds nuw %struct.vms_vector, ptr %14, i32 0, i32 1, !dbg !4539
  store i32 %119, ptr %120, align 4, !dbg !4540
  %121 = load ptr, ptr %5, align 8, !dbg !4541
  %122 = getelementptr inbounds nuw %struct.vms_vector, ptr %121, i32 0, i32 0, !dbg !4542
  %123 = load i32, ptr %122, align 4, !dbg !4542
  %124 = load i32, ptr @FrameTime, align 4, !dbg !4543
  %125 = mul nsw i32 %124, 32, !dbg !4544
  %126 = call noundef i32 @_Z6fixmulii(i32 noundef %123, i32 noundef %125), !dbg !4545
  %127 = getelementptr inbounds nuw %struct.vms_vector, ptr %14, i32 0, i32 2, !dbg !4546
  store i32 %126, ptr %127, align 4, !dbg !4547
  br label %175, !dbg !4548

128:                                              ; preds = %78
  %129 = load ptr, ptr %5, align 8, !dbg !4549
  %130 = getelementptr inbounds nuw %struct.vms_vector, ptr %129, i32 0, i32 1, !dbg !4550
  %131 = load i32, ptr %130, align 4, !dbg !4550
  %132 = sub nsw i32 0, %131, !dbg !4551
  %133 = load i32, ptr @FrameTime, align 4, !dbg !4552
  %134 = mul nsw i32 %133, 32, !dbg !4553
  %135 = call noundef i32 @_Z6fixmulii(i32 noundef %132, i32 noundef %134), !dbg !4554
  %136 = getelementptr inbounds nuw %struct.vms_vector, ptr %14, i32 0, i32 0, !dbg !4555
  store i32 %135, ptr %136, align 4, !dbg !4556
  %137 = load ptr, ptr %5, align 8, !dbg !4557
  %138 = getelementptr inbounds nuw %struct.vms_vector, ptr %137, i32 0, i32 0, !dbg !4558
  %139 = load i32, ptr %138, align 4, !dbg !4558
  %140 = load i32, ptr @FrameTime, align 4, !dbg !4559
  %141 = mul nsw i32 %140, 32, !dbg !4560
  %142 = call noundef i32 @_Z6fixmulii(i32 noundef %139, i32 noundef %141), !dbg !4561
  %143 = getelementptr inbounds nuw %struct.vms_vector, ptr %14, i32 0, i32 1, !dbg !4562
  store i32 %142, ptr %143, align 4, !dbg !4563
  %144 = load ptr, ptr %5, align 8, !dbg !4564
  %145 = getelementptr inbounds nuw %struct.vms_vector, ptr %144, i32 0, i32 2, !dbg !4565
  %146 = load i32, ptr %145, align 4, !dbg !4565
  %147 = load i32, ptr @FrameTime, align 4, !dbg !4566
  %148 = mul nsw i32 %147, 32, !dbg !4567
  %149 = call noundef i32 @_Z6fixmulii(i32 noundef %146, i32 noundef %148), !dbg !4568
  %150 = getelementptr inbounds nuw %struct.vms_vector, ptr %14, i32 0, i32 2, !dbg !4569
  store i32 %149, ptr %150, align 4, !dbg !4570
  br label %175, !dbg !4571

151:                                              ; preds = %78
  %152 = load ptr, ptr %5, align 8, !dbg !4572
  %153 = getelementptr inbounds nuw %struct.vms_vector, ptr %152, i32 0, i32 1, !dbg !4573
  %154 = load i32, ptr %153, align 4, !dbg !4573
  %155 = load i32, ptr @FrameTime, align 4, !dbg !4574
  %156 = mul nsw i32 %155, 32, !dbg !4575
  %157 = call noundef i32 @_Z6fixmulii(i32 noundef %154, i32 noundef %156), !dbg !4576
  %158 = getelementptr inbounds nuw %struct.vms_vector, ptr %14, i32 0, i32 0, !dbg !4577
  store i32 %157, ptr %158, align 4, !dbg !4578
  %159 = load ptr, ptr %5, align 8, !dbg !4579
  %160 = getelementptr inbounds nuw %struct.vms_vector, ptr %159, i32 0, i32 0, !dbg !4580
  %161 = load i32, ptr %160, align 4, !dbg !4580
  %162 = sub nsw i32 0, %161, !dbg !4581
  %163 = load i32, ptr @FrameTime, align 4, !dbg !4582
  %164 = mul nsw i32 %163, 32, !dbg !4583
  %165 = call noundef i32 @_Z6fixmulii(i32 noundef %162, i32 noundef %164), !dbg !4584
  %166 = getelementptr inbounds nuw %struct.vms_vector, ptr %14, i32 0, i32 1, !dbg !4585
  store i32 %165, ptr %166, align 4, !dbg !4586
  %167 = load ptr, ptr %5, align 8, !dbg !4587
  %168 = getelementptr inbounds nuw %struct.vms_vector, ptr %167, i32 0, i32 2, !dbg !4588
  %169 = load i32, ptr %168, align 4, !dbg !4588
  %170 = load i32, ptr @FrameTime, align 4, !dbg !4589
  %171 = mul nsw i32 %170, 32, !dbg !4590
  %172 = call noundef i32 @_Z6fixmulii(i32 noundef %169, i32 noundef %171), !dbg !4591
  %173 = getelementptr inbounds nuw %struct.vms_vector, ptr %14, i32 0, i32 2, !dbg !4592
  store i32 %172, ptr %173, align 4, !dbg !4593
  br label %175, !dbg !4594

174:                                              ; preds = %78
  call void (ptr, ...) @_Z5ErrorPKcz(ptr noundef @.str.11), !dbg !4595
  br label %175, !dbg !4596

175:                                              ; preds = %174, %151, %128, %105, %82
  %176 = load i32, ptr %6, align 4, !dbg !4597
  %177 = icmp sgt i32 %176, 0, !dbg !4599
  br i1 %177, label %178, label %229, !dbg !4599

178:                                              ; preds = %175
    #dbg_declare(ptr %16, !4600, !DIExpression(), !4602)
  %179 = load ptr, ptr %5, align 8, !dbg !4603
  %180 = load ptr, ptr %4, align 8, !dbg !4603
  %181 = getelementptr inbounds nuw %struct.object, ptr %180, i32 0, i32 12, !dbg !4603
  %182 = getelementptr inbounds nuw %struct.vms_matrix, ptr %181, i32 0, i32 2, !dbg !4603
  %183 = call noundef i32 @_Z14vm_vec_dotprodP10vms_vectorS0_(ptr noundef %179, ptr noundef %182), !dbg !4603
  store i32 %183, ptr %16, align 4, !dbg !4604
  %184 = load i32, ptr %16, align 4, !dbg !4605
  %185 = load ptr, ptr %9, align 8, !dbg !4607
  %186 = getelementptr inbounds nuw %struct.robot_info, ptr %185, i32 0, i32 22, !dbg !4608
  %187 = load i32, ptr @Difficulty_level, align 4, !dbg !4609
  %188 = sext i32 %187 to i64, !dbg !4607
  %189 = getelementptr inbounds [5 x i32], ptr %186, i64 0, i64 %188, !dbg !4607
  %190 = load i32, ptr %189, align 4, !dbg !4607
  %191 = icmp sgt i32 %184, %190, !dbg !4610
  br i1 %191, label %192, label %228, !dbg !4611

192:                                              ; preds = %178
  %193 = load ptr, ptr @ConsoleObject, align 8, !dbg !4612
  %194 = getelementptr inbounds nuw %struct.object, ptr %193, i32 0, i32 8, !dbg !4613
  %195 = load i8, ptr %194, align 1, !dbg !4613
  %196 = zext i8 %195 to i32, !dbg !4612
  %197 = and i32 %196, 2048, !dbg !4614
  %198 = icmp ne i32 %197, 0, !dbg !4615
  br i1 %198, label %228, label %199, !dbg !4611

199:                                              ; preds = %192
    #dbg_declare(ptr %17, !4616, !DIExpression(), !4618)
  %200 = load ptr, ptr %9, align 8, !dbg !4619
  %201 = getelementptr inbounds nuw %struct.robot_info, ptr %200, i32 0, i32 19, !dbg !4621
  %202 = load i32, ptr %201, align 4, !dbg !4621
  %203 = icmp ne i32 %202, 0, !dbg !4619
  br i1 %203, label %204, label %212, !dbg !4619

204:                                              ; preds = %199
  %205 = load ptr, ptr %4, align 8, !dbg !4622
  %206 = getelementptr inbounds nuw %struct.object, ptr %205, i32 0, i32 14, !dbg !4623
  %207 = load i32, ptr %206, align 4, !dbg !4623
  %208 = load ptr, ptr %9, align 8, !dbg !4624
  %209 = getelementptr inbounds nuw %struct.robot_info, ptr %208, i32 0, i32 19, !dbg !4625
  %210 = load i32, ptr %209, align 4, !dbg !4625
  %211 = call noundef i32 @_Z6fixdivii(i32 noundef %207, i32 noundef %210), !dbg !4626
  store i32 %211, ptr %17, align 4, !dbg !4627
  br label %213, !dbg !4628

212:                                              ; preds = %199
  store i32 65536, ptr %17, align 4, !dbg !4629
  br label %213

213:                                              ; preds = %212, %204
  %214 = load i32, ptr %17, align 4, !dbg !4630
  %215 = icmp sgt i32 %214, 65536, !dbg !4632
  br i1 %215, label %216, label %217, !dbg !4632

216:                                              ; preds = %213
  store i32 65536, ptr %17, align 4, !dbg !4633
  br label %222, !dbg !4634

217:                                              ; preds = %213
  %218 = load i32, ptr %17, align 4, !dbg !4635
  %219 = icmp slt i32 %218, 0, !dbg !4637
  br i1 %219, label %220, label %221, !dbg !4637

220:                                              ; preds = %217
  store i32 0, ptr %17, align 4, !dbg !4638
  br label %221, !dbg !4639

221:                                              ; preds = %220, %217
  br label %222

222:                                              ; preds = %221, %216
  %223 = load i32, ptr %6, align 4, !dbg !4640
  %224 = call noundef i32 @_Z3i2fi(i32 noundef %223), !dbg !4641
  %225 = load i32, ptr %17, align 4, !dbg !4642
  %226 = add nsw i32 %224, %225, !dbg !4643
  %227 = call noundef ptr @_Z12vm_vec_scaleP10vms_vectori(ptr noundef %14, i32 noundef %226), !dbg !4644
  br label %228, !dbg !4645

228:                                              ; preds = %222, %192, %178
  br label %229, !dbg !4646

229:                                              ; preds = %228, %175
  %230 = getelementptr inbounds nuw %struct.vms_vector, ptr %14, i32 0, i32 0, !dbg !4647
  %231 = load i32, ptr %230, align 4, !dbg !4647
  %232 = load ptr, ptr %7, align 8, !dbg !4648
  %233 = getelementptr inbounds nuw %struct.physics_info, ptr %232, i32 0, i32 0, !dbg !4649
  %234 = getelementptr inbounds nuw %struct.vms_vector, ptr %233, i32 0, i32 0, !dbg !4650
  %235 = load i32, ptr %234, align 4, !dbg !4651
  %236 = add nsw i32 %235, %231, !dbg !4651
  store i32 %236, ptr %234, align 4, !dbg !4651
  %237 = getelementptr inbounds nuw %struct.vms_vector, ptr %14, i32 0, i32 1, !dbg !4652
  %238 = load i32, ptr %237, align 4, !dbg !4652
  %239 = load ptr, ptr %7, align 8, !dbg !4653
  %240 = getelementptr inbounds nuw %struct.physics_info, ptr %239, i32 0, i32 0, !dbg !4654
  %241 = getelementptr inbounds nuw %struct.vms_vector, ptr %240, i32 0, i32 1, !dbg !4655
  %242 = load i32, ptr %241, align 4, !dbg !4656
  %243 = add nsw i32 %242, %238, !dbg !4656
  store i32 %243, ptr %241, align 4, !dbg !4656
  %244 = getelementptr inbounds nuw %struct.vms_vector, ptr %14, i32 0, i32 2, !dbg !4657
  %245 = load i32, ptr %244, align 4, !dbg !4657
  %246 = load ptr, ptr %7, align 8, !dbg !4658
  %247 = getelementptr inbounds nuw %struct.physics_info, ptr %246, i32 0, i32 0, !dbg !4659
  %248 = getelementptr inbounds nuw %struct.vms_vector, ptr %247, i32 0, i32 2, !dbg !4660
  %249 = load i32, ptr %248, align 4, !dbg !4661
  %250 = add nsw i32 %249, %245, !dbg !4661
  store i32 %250, ptr %248, align 4, !dbg !4661
  %251 = load ptr, ptr %7, align 8, !dbg !4662
  %252 = getelementptr inbounds nuw %struct.physics_info, ptr %251, i32 0, i32 0, !dbg !4663
  %253 = call noundef i32 @_Z16vm_vec_mag_quickP10vms_vector(ptr noundef %252), !dbg !4664
  store i32 %253, ptr %8, align 4, !dbg !4665
  %254 = load ptr, ptr %4, align 8, !dbg !4666
  %255 = ptrtoint ptr %254 to i64, !dbg !4668
  %256 = sub i64 %255, ptrtoint (ptr @Objects to i64), !dbg !4668
  %257 = sdiv exact i64 %256, 268, !dbg !4668
  %258 = icmp ne i64 %257, 1, !dbg !4669
  br i1 %258, label %259, label %296, !dbg !4670

259:                                              ; preds = %229
  %260 = load i32, ptr %8, align 4, !dbg !4671
  %261 = load ptr, ptr %9, align 8, !dbg !4672
  %262 = getelementptr inbounds nuw %struct.robot_info, ptr %261, i32 0, i32 26, !dbg !4673
  %263 = load i32, ptr @Difficulty_level, align 4, !dbg !4674
  %264 = sext i32 %263 to i64, !dbg !4672
  %265 = getelementptr inbounds [5 x i32], ptr %262, i64 0, i64 %264, !dbg !4672
  %266 = load i32, ptr %265, align 4, !dbg !4672
  %267 = icmp sgt i32 %260, %266, !dbg !4675
  br i1 %267, label %268, label %296, !dbg !4670

268:                                              ; preds = %259
  %269 = load ptr, ptr %7, align 8, !dbg !4676
  %270 = getelementptr inbounds nuw %struct.physics_info, ptr %269, i32 0, i32 0, !dbg !4678
  %271 = getelementptr inbounds nuw %struct.vms_vector, ptr %270, i32 0, i32 0, !dbg !4679
  %272 = load i32, ptr %271, align 4, !dbg !4679
  %273 = mul nsw i32 %272, 3, !dbg !4680
  %274 = sdiv i32 %273, 4, !dbg !4681
  %275 = load ptr, ptr %7, align 8, !dbg !4682
  %276 = getelementptr inbounds nuw %struct.physics_info, ptr %275, i32 0, i32 0, !dbg !4683
  %277 = getelementptr inbounds nuw %struct.vms_vector, ptr %276, i32 0, i32 0, !dbg !4684
  store i32 %274, ptr %277, align 4, !dbg !4685
  %278 = load ptr, ptr %7, align 8, !dbg !4686
  %279 = getelementptr inbounds nuw %struct.physics_info, ptr %278, i32 0, i32 0, !dbg !4687
  %280 = getelementptr inbounds nuw %struct.vms_vector, ptr %279, i32 0, i32 1, !dbg !4688
  %281 = load i32, ptr %280, align 4, !dbg !4688
  %282 = mul nsw i32 %281, 3, !dbg !4689
  %283 = sdiv i32 %282, 4, !dbg !4690
  %284 = load ptr, ptr %7, align 8, !dbg !4691
  %285 = getelementptr inbounds nuw %struct.physics_info, ptr %284, i32 0, i32 0, !dbg !4692
  %286 = getelementptr inbounds nuw %struct.vms_vector, ptr %285, i32 0, i32 1, !dbg !4693
  store i32 %283, ptr %286, align 4, !dbg !4694
  %287 = load ptr, ptr %7, align 8, !dbg !4695
  %288 = getelementptr inbounds nuw %struct.physics_info, ptr %287, i32 0, i32 0, !dbg !4696
  %289 = getelementptr inbounds nuw %struct.vms_vector, ptr %288, i32 0, i32 2, !dbg !4697
  %290 = load i32, ptr %289, align 4, !dbg !4697
  %291 = mul nsw i32 %290, 3, !dbg !4698
  %292 = sdiv i32 %291, 4, !dbg !4699
  %293 = load ptr, ptr %7, align 8, !dbg !4700
  %294 = getelementptr inbounds nuw %struct.physics_info, ptr %293, i32 0, i32 0, !dbg !4701
  %295 = getelementptr inbounds nuw %struct.vms_vector, ptr %294, i32 0, i32 2, !dbg !4702
  store i32 %292, ptr %295, align 4, !dbg !4703
  br label %296, !dbg !4704

296:                                              ; preds = %32, %268, %259, %229
  ret void, !dbg !4705
}

declare void @_Z5ErrorPKcz(ptr noundef, ...) #2

; Function Attrs: mustprogress noinline ssp uwtable(sync)
define void @_Z21move_away_from_playerP6objectP10vms_vectori(ptr noundef %0, ptr noundef %1, i32 noundef %2) #1 !dbg !4706 {
  %4 = alloca ptr, align 8
  %5 = alloca ptr, align 8
  %6 = alloca i32, align 4
  %7 = alloca i32, align 4
  %8 = alloca ptr, align 8
  %9 = alloca ptr, align 8
  %10 = alloca i32, align 4
  store ptr %0, ptr %4, align 8
    #dbg_declare(ptr %4, !4707, !DIExpression(), !4708)
  store ptr %1, ptr %5, align 8
    #dbg_declare(ptr %5, !4709, !DIExpression(), !4710)
  store i32 %2, ptr %6, align 4
    #dbg_declare(ptr %6, !4711, !DIExpression(), !4712)
    #dbg_declare(ptr %7, !4713, !DIExpression(), !4714)
    #dbg_declare(ptr %8, !4715, !DIExpression(), !4716)
  %11 = load ptr, ptr %4, align 8, !dbg !4717
  %12 = getelementptr inbounds nuw %struct.object, ptr %11, i32 0, i32 21, !dbg !4718
  store ptr %12, ptr %8, align 8, !dbg !4716
    #dbg_declare(ptr %9, !4719, !DIExpression(), !4720)
  %13 = load ptr, ptr %4, align 8, !dbg !4721
  %14 = getelementptr inbounds nuw %struct.object, ptr %13, i32 0, i32 2, !dbg !4722
  %15 = load i8, ptr %14, align 1, !dbg !4722
  %16 = zext i8 %15 to i64, !dbg !4723
  %17 = getelementptr inbounds nuw [0 x %struct.robot_info], ptr @Robot_info, i64 0, i64 %16, !dbg !4723
  store ptr %17, ptr %9, align 8, !dbg !4720
    #dbg_declare(ptr %10, !4724, !DIExpression(), !4725)
  %18 = load ptr, ptr %5, align 8, !dbg !4726
  %19 = getelementptr inbounds nuw %struct.vms_vector, ptr %18, i32 0, i32 0, !dbg !4727
  %20 = load i32, ptr %19, align 4, !dbg !4727
  %21 = load i32, ptr @FrameTime, align 4, !dbg !4728
  %22 = mul nsw i32 %21, 16, !dbg !4729
  %23 = call noundef i32 @_Z6fixmulii(i32 noundef %20, i32 noundef %22), !dbg !4730
  %24 = load ptr, ptr %8, align 8, !dbg !4731
  %25 = getelementptr inbounds nuw %struct.physics_info, ptr %24, i32 0, i32 0, !dbg !4732
  %26 = getelementptr inbounds nuw %struct.vms_vector, ptr %25, i32 0, i32 0, !dbg !4733
  %27 = load i32, ptr %26, align 4, !dbg !4734
  %28 = sub nsw i32 %27, %23, !dbg !4734
  store i32 %28, ptr %26, align 4, !dbg !4734
  %29 = load ptr, ptr %5, align 8, !dbg !4735
  %30 = getelementptr inbounds nuw %struct.vms_vector, ptr %29, i32 0, i32 1, !dbg !4736
  %31 = load i32, ptr %30, align 4, !dbg !4736
  %32 = load i32, ptr @FrameTime, align 4, !dbg !4737
  %33 = mul nsw i32 %32, 16, !dbg !4738
  %34 = call noundef i32 @_Z6fixmulii(i32 noundef %31, i32 noundef %33), !dbg !4739
  %35 = load ptr, ptr %8, align 8, !dbg !4740
  %36 = getelementptr inbounds nuw %struct.physics_info, ptr %35, i32 0, i32 0, !dbg !4741
  %37 = getelementptr inbounds nuw %struct.vms_vector, ptr %36, i32 0, i32 1, !dbg !4742
  %38 = load i32, ptr %37, align 4, !dbg !4743
  %39 = sub nsw i32 %38, %34, !dbg !4743
  store i32 %39, ptr %37, align 4, !dbg !4743
  %40 = load ptr, ptr %5, align 8, !dbg !4744
  %41 = getelementptr inbounds nuw %struct.vms_vector, ptr %40, i32 0, i32 2, !dbg !4745
  %42 = load i32, ptr %41, align 4, !dbg !4745
  %43 = load i32, ptr @FrameTime, align 4, !dbg !4746
  %44 = mul nsw i32 %43, 16, !dbg !4747
  %45 = call noundef i32 @_Z6fixmulii(i32 noundef %42, i32 noundef %44), !dbg !4748
  %46 = load ptr, ptr %8, align 8, !dbg !4749
  %47 = getelementptr inbounds nuw %struct.physics_info, ptr %46, i32 0, i32 0, !dbg !4750
  %48 = getelementptr inbounds nuw %struct.vms_vector, ptr %47, i32 0, i32 2, !dbg !4751
  %49 = load i32, ptr %48, align 4, !dbg !4752
  %50 = sub nsw i32 %49, %45, !dbg !4752
  store i32 %50, ptr %48, align 4, !dbg !4752
  %51 = load i32, ptr %6, align 4, !dbg !4753
  %52 = icmp ne i32 %51, 0, !dbg !4753
  br i1 %52, label %53, label %111, !dbg !4753

53:                                               ; preds = %3
  %54 = load ptr, ptr %4, align 8, !dbg !4755
  %55 = ptrtoint ptr %54 to i64, !dbg !4757
  %56 = sub i64 %55, ptrtoint (ptr @Objects to i64), !dbg !4757
  %57 = sdiv exact i64 %56, 268, !dbg !4757
  %58 = load i32, ptr @FrameCount, align 4, !dbg !4758
  %59 = sext i32 %58 to i64, !dbg !4758
  %60 = load ptr, ptr %4, align 8, !dbg !4759
  %61 = ptrtoint ptr %60 to i64, !dbg !4760
  %62 = sub i64 %61, ptrtoint (ptr @Objects to i64), !dbg !4760
  %63 = sdiv exact i64 %62, 268, !dbg !4760
  %64 = mul nsw i64 3, %63, !dbg !4761
  %65 = add nsw i64 %59, %64, !dbg !4762
  %66 = ashr i64 %65, 5, !dbg !4763
  %67 = xor i64 %57, %66, !dbg !4764
  %68 = and i64 %67, 3, !dbg !4765
  %69 = trunc i64 %68 to i32, !dbg !4766
  store i32 %69, ptr %10, align 4, !dbg !4767
  %70 = load i32, ptr %10, align 4, !dbg !4768
  switch i32 %70, label %109 [
    i32 0, label %71
    i32 1, label %80
    i32 2, label %90
    i32 3, label %99
  ], !dbg !4769

71:                                               ; preds = %53
  %72 = load ptr, ptr %8, align 8, !dbg !4770
  %73 = getelementptr inbounds nuw %struct.physics_info, ptr %72, i32 0, i32 0, !dbg !4772
  %74 = load ptr, ptr %4, align 8, !dbg !4773
  %75 = getelementptr inbounds nuw %struct.object, ptr %74, i32 0, i32 12, !dbg !4774
  %76 = getelementptr inbounds nuw %struct.vms_matrix, ptr %75, i32 0, i32 1, !dbg !4775
  %77 = load i32, ptr @FrameTime, align 4, !dbg !4776
  %78 = shl i32 %77, 5, !dbg !4777
  %79 = call noundef ptr @_Z17vm_vec_scale_add2P10vms_vectorS0_i(ptr noundef %73, ptr noundef %76, i32 noundef %78), !dbg !4778
  br label %110, !dbg !4779

80:                                               ; preds = %53
  %81 = load ptr, ptr %8, align 8, !dbg !4780
  %82 = getelementptr inbounds nuw %struct.physics_info, ptr %81, i32 0, i32 0, !dbg !4781
  %83 = load ptr, ptr %4, align 8, !dbg !4782
  %84 = getelementptr inbounds nuw %struct.object, ptr %83, i32 0, i32 12, !dbg !4783
  %85 = getelementptr inbounds nuw %struct.vms_matrix, ptr %84, i32 0, i32 1, !dbg !4784
  %86 = load i32, ptr @FrameTime, align 4, !dbg !4785
  %87 = sub nsw i32 0, %86, !dbg !4786
  %88 = shl i32 %87, 5, !dbg !4787
  %89 = call noundef ptr @_Z17vm_vec_scale_add2P10vms_vectorS0_i(ptr noundef %82, ptr noundef %85, i32 noundef %88), !dbg !4788
  br label %110, !dbg !4789

